extensions = x509v3

[ x509v3 ]
subjectAltName          = DNS:localhost
keyUsage                = keyEncipherment,digitalSignature,keyAgreement
extendedKeyUsage        = serverAuth
subjectKeyIdentifier    = hash
authorityKeyIdentifier  = keyid
basicConstraints        = CA:false
authorityInfoAccess     = @issuer_info
crlDistributionPoints   = @crl_info

[ crl_ext ]
authorityKeyIdentifier  = keyid:always
authorityInfoAccess     = @issuer_info

[ issuer_info ]
caIssuers;URI.0         = http://test.curl.se/ca/EdelCurlRoot.cer

[ crl_info ]
URI.0                   = http://test.curl.se/ca/EdelCurlRoot.crl

[ req ]
default_bits            = 12048
distinguished_name      = req_DN
default_md              = sha256
string_mask             = utf8only

[ req_DN ]
countryName             = "Country Name is Northern Nowhere"
countryName_value       = NN
organizationName        = "Organization Name"
organizationName_value  = Edel Curl Arctic Illudium Research Cloud
commonName              = "Common Name"
commonName_value        = localhost
-----BEGIN RSA PRIVATE KEY-----
MIIEpAIBAAKCAQEA08utjKTFe7FnvuEcc6rwHk4wBGocMPf6etyab/Relv6ocNCM
wK070rrBEva736uv/n2KhhxVREZCE/5BIm/lvjl2n7vs10U5BCSZ8cl4Zape943S
yALaN+nRNuRUdEqPa2l5PIuAJeLQooinPwUu5zlXa8V0/fMCLoapChTOY9dXXoXG
Oa5tr5gRwqDYVMXrkvhJFbwXaczBlfTcPYQDNulaSeR5sbnoAinkI0qprthgCZGF
AbPqyxjvLPfqSO0QXrpdWI5mCrWeM1ghbltZ71gtMQA+KubkcBDYxXPQCFDkCB/I
SCZ8qy6W8BjbYCOZXWLeqL09NUeCNVzVfj6doQIDAQABAoIBADAjq168VOa4fAw2
vnDL+afpvaBDPgUjWBt06OVpddZ8K2z4+gURWvea2yekTS+ZpncBseqppffOwFYr
BEL/jAigpwXHgR2s7jiy2QrL8EGrZ8p8wdwUSeVLj/IaE9ga2l5fqt7IFmiGFUXc
Kad5Vh/YOLaWOvE9utE4alOQRxkJ/0YLFyMk/hpuh/+/abAh+iA5R/GgerfurfDC
boHdWYxcA68CQ/ipyWdnR6cLnCf7ZVEtpLgOjTaKv0xbX2LZSWpbEXTlVRVQwRpP
v+A83xVSHC1UWgbAAg1vpjdm3ZOOyUGf7XzbX/weacYWCZStBl5onLBk0YNOVbQe
cVW1ZAECgYEA63kpVFVkQ3GyK6rjBOZ2lR7m8RIjpNYb1Mr8xcvFtTHNReM/8WtF
Fu87XnGnfPvfYhDgGToczqMnO/Row4Cd0BfDJ4p7BwIibxgvD3GXXDkDBNK3pihh
ymuSkvqrHPgTBgFTDTOZjmIScqEohPZqvGIPgfEkNcNUKVBqFaJKaKkCgYEA5kIf
uWpEpOPDwqaZpGsVsSgd2inybTU2vGg/UX1dCwjdHC+Lu8hIPEsDth4yGwoCYzhv
meCOfsiqqBmULJZj8DKKZI0QuZd17TKEvHiPNTgZdnhlnVGKLMJ4b3eEa6qQafsX
0E73rLaTp2SqOaGz/7TzNLD49kHVOGfDoqQE0DkCgYBhWSfi+6KF131HXFCaeATS
RYJIa61cuj+rS3gQ9dt4u2wX1ola73QStTigJPCPVTnWuw9KnqHGM+FGghbFrGiR
3SELOc7+6Lz/nMnn4pgmwlMjLVJLWSqEmtBv/z26rjx/IREKxihXmufxh/rObWlX
FFtA50aHC4fBxML2yq9kcQKBgQClqvPKYxRKkvm5ZkbrToTH9vYrjry3KG9edZ8B
EbLNCq6T5f2iuUKH5u0frnAclkILg4KAc1nzDIwE8Ip03iu/mY2LNRfQgJI/fHaW
aCOZheiEHbH208EX3T/r61EiahEHv7ptjTOUV7S63qm/V4H7vAS0Z5RpEgrIT5gp
v9sauQKBgQCTm0zISeHFCIKTeCNq9KKEa8c4PKKQytM2SxinObU7MkYcvMAnjgEN
S7OUAYIkCC9Py+FKocE0ILbcLNlYYm0A5mTF04QUcpwmfAa2O7JFGutWv4HoLPvM
++Y17RI6RQBMCRSwJjIJKFXiqIMqk0daX/OsOs/FPplc3qAUKoQpOw==
-----END RSA PRIVATE KEY-----
Certificate:
    Data:
        Version: 3 (0x2)
        Serial Number:
            bd:fe:26:8f:33:6f:f0:6b
    Signature Algorithm: sha256WithRSAEncryption
        Issuer:
            countryName               = NN
            organizationName          = Edel Curl Arctic Illudium Research Cloud
            commonName                = Northern Nowhere Trust Anchor
        Validity
            Not Before: Mar  6 09:58:53 2025 GMT
            Not After : Dec 31 09:58:53 2025 GMT
        Subject:
            countryName               = NN
            organizationName          = Edel Curl Arctic Illudium Research Cloud
            commonName                = localhost
        Subject Public Key Info:
            Public Key Algorithm: rsaEncryption
                RSA Public-Key: (2048 bit)
                Modulus:
                    00:d3:cb:ad:8c:a4:c5:7b:b1:67:be:e1:1c:73:aa:
                    f0:1e:4e:30:04:6a:1c:30:f7:fa:7a:dc:9a:6f:f4:
                    5e:96:fe:a8:70:d0:8c:c0:ad:3b:d2:ba:c1:12:f6:
                    bb:df:ab:af:fe:7d:8a:86:1c:55:44:46:42:13:fe:
                    41:22:6f:e5:be:39:76:9f:bb:ec:d7:45:39:04:24:
                    99:f1:c9:78:65:aa:5e:f7:8d:d2:c8:02:da:37:e9:
                    d1:36:e4:54:74:4a:8f:6b:69:79:3c:8b:80:25:e2:
                    d0:a2:88:a7:3f:05:2e:e7:39:57:6b:c5:74:fd:f3:
                    02:2e:86:a9:0a:14:ce:63:d7:57:5e:85:c6:39:ae:
                    6d:af:98:11:c2:a0:d8:54:c5:eb:92:f8:49:15:bc:
                    17:69:cc:c1:95:f4:dc:3d:84:03:36:e9:5a:49:e4:
                    79:b1:b9:e8:02:29:e4:23:4a:a9:ae:d8:60:09:91:
                    85:01:b3:ea:cb:18:ef:2c:f7:ea:48:ed:10:5e:ba:
                    5d:58:8e:66:0a:b5:9e:33:58:21:6e:5b:59:ef:58:
                    2d:31:00:3e:2a:e6:e4:70:10:d8:c5:73:d0:08:50:
                    e4:08:1f:c8:48:26:7c:ab:2e:96:f0:18:db:60:23:
                    99:5d:62:de:a8:bd:3d:35:47:82:35:5c:d5:7e:3e:
                    9d:a1
                Exponent: 65537 (0x10001)
        X509v3 extensions:
            X509v3 Subject Alternative Name: 
                DNS:localhost
            X509v3 Key Usage: 
                Digital Signature, Key Encipherment, Key Agreement
            X509v3 Extended Key Usage: 
                TLS Web Server Authentication
            X509v3 Subject Key Identifier: 
                CC:1C:16:BB:7E:23:D6:87:0A:4C:94:30:3F:C6:5E:CC:47:94:42:03
            X509v3 Authority Key Identifier: 
                keyid:7B:72:9A:5B:F3:53:C0:55:90:F4:F0:54:C7:62:60:59:C0:AA:0A:69

            X509v3 Basic Constraints: 
                CA:FALSE
            Authority Information Access: 
                CA Issuers - URI:http://test.curl.se/ca/EdelCurlRoot.cer

            X509v3 CRL Distribution Points: 

                Full Name:
                  URI:http://test.curl.se/ca/EdelCurlRoot.crl

    Signature Algorithm: sha256WithRSAEncryption
         15:8b:50:ef:91:32:14:49:55:66:c7:32:50:5a:63:b9:62:51:
         d1:c0:8d:77:2d:31:89:23:93:75:4d:21:b3:1a:c9:83:b1:97:
         33:62:be:04:d0:c5:30:2a:9d:8d:23:11:2c:11:a7:75:f5:f5:
         16:2f:df:39:ce:51:53:e6:a7:8b:b7:b5:b0:4b:56:65:38:0c:
         46:23:67:14:67:20:1f:a1:f2:ea:60:fc:62:79:11:05:70:39:
         58:a4:2e:cd:61:ee:b7:dc:4e:77:e0:5a:46:ab:ff:ad:c9:51:
         2d:0c:00:4b:60:7a:ab:17:c3:0b:2f:ae:d8:7b:4f:e0:96:df:
         9a:39:9f:a9:32:54:89:35:a6:f3:e1:65:15:66:14:c4:18:68:
         38:12:2d:86:d4:a8:95:0f:1b:ab:32:0a:77:46:b2:ef:50:0b:
         4c:5f:c2:c6:63:1e:de:64:48:32:a5:72:d5:59:04:a3:df:db:
         cd:7f:75:80:65:b8:96:fc:f1:13:cf:52:e0:a0:8d:60:7c:4b:
         fa:aa:06:85:df:d5:bf:5f:d2:06:7e:2c:40:54:3d:f5:0c:91:
         e0:60:93:58:24:aa:3d:30:04:2b:41:f5:f6:97:c7:0e:21:54:
         1c:98:a1:d9:4d:a4:0a:dd:81:94:7a:1d:a6:a1:48:a5:63:aa:
         15:db:4e:40
-----BEGIN CERTIFICATE-----
MIIERzCCAy+gAwIBAgIJAL3+Jo8zb/BrMA0GCSqGSIb3DQEBCwUAMGgxCzAJBgNV
BAYTAk5OMTEwLwYDVQQKDChFZGVsIEN1cmwgQXJjdGljIElsbHVkaXVtIFJlc2Vh
cmNoIENsb3VkMSYwJAYDVQQDDB1Ob3J0aGVybiBOb3doZXJlIFRydXN0IEFuY2hv
cjAeFw0yNTAzMDYwOTU4NTNaFw0yNTEyMzEwOTU4NTNaMFQxCzAJBgNVBAYTAk5O
MTEwLwYDVQQKDChFZGVsIEN1cmwgQXJjdGljIElsbHVkaXVtIFJlc2VhcmNoIENs
b3VkMRIwEAYDVQQDDAlsb2NhbGhvc3QwggEiMA0GCSqGSIb3DQEBAQUAA4IBDwAw
ggEKAoIBAQDTy62MpMV7sWe+4RxzqvAeTjAEahww9/p63Jpv9F6W/qhw0IzArTvS
usES9rvfq6/+fYqGHFVERkIT/kEib+W+OXafu+zXRTkEJJnxyXhlql73jdLIAto3
6dE25FR0So9raXk8i4Al4tCiiKc/BS7nOVdrxXT98wIuhqkKFM5j11dehcY5rm2v
mBHCoNhUxeuS+EkVvBdpzMGV9Nw9hAM26VpJ5HmxuegCKeQjSqmu2GAJkYUBs+rL
GO8s9+pI7RBeul1YjmYKtZ4zWCFuW1nvWC0xAD4q5uRwENjFc9AIUOQIH8hIJnyr
LpbwGNtgI5ldYt6ovT01R4I1XNV+Pp2hAgMBAAGjggEGMIIBAjAUBgNVHREEDTAL
gglsb2NhbGhvc3QwCwYDVR0PBAQDAgOoMBMGA1UdJQQMMAoGCCsGAQUFBwMBMB0G
A1UdDgQWBBTMHBa7fiPWhwpMlDA/xl7MR5RCAzAfBgNVHSMEGDAWgBR7cppb81PA
VZD08FTHYmBZwKoKaTAJBgNVHRMEAjAAMEMGCCsGAQUFBwEBBDcwNTAzBggrBgEF
BQcwAoYnaHR0cDovL3Rlc3QuY3VybC5zZS9jYS9FZGVsQ3VybFJvb3QuY2VyMDgG
A1UdHwQxMC8wLaAroCmGJ2h0dHA6Ly90ZXN0LmN1cmwuc2UvY2EvRWRlbEN1cmxS
b290LmNybDANBgkqhkiG9w0BAQsFAAOCAQEAFYtQ75EyFElVZscyUFpjuWJR0cCN
dy0xiSOTdU0hsxrJg7GXM2K+BNDFMCqdjSMRLBGndfX1Fi/fOc5RU+ani7e1sEtW
ZTgMRiNnFGcgH6Hy6mD8YnkRBXA5WKQuzWHut9xOd+BaRqv/rclRLQwAS2B6qxfD
Cy+u2HtP4JbfmjmfqTJUiTWm8+FlFWYUxBhoOBIthtSolQ8bqzIKd0ay71ALTF/C
xmMe3mRIMqVy1VkEo9/bzX91gGW4lvzxE89S4KCNYHxL+qoGhd/Vv1/SBn4sQFQ9
9QyR4GCTWCSqPTAEK0H19pfHDiFUHJih2U2kCt2BlHodpqFIpWOqFdtOQA==
-----END CERTIFICATE-----
