Certificate:
    Data:
        Version: 3 (0x2)
        Serial Number: 14269504311662 (0xcfa60bc516e)
    Signature Algorithm: sha1WithRSAEncryption
        Issuer:
            countryName               = NN
            organizationName          = Edel Curl Arctic Illudium Research Cloud
            commonName                = Northern Nowhere Trust Anchor
        Validity
            Not Before: Mar 21 15:07:11 2015 GMT
            Not After : Jun  7 15:07:11 2023 GMT
        Subject:
            countryName               = NN
            organizationName          = Edel Curl Arctic Illudium Research Cloud
            commonName                = localhost
        Subject Public Key Info:
            Public Key Algorithm: rsaEncryption
                Public-Key: (1024 bit)
                Modulus:
                    00:e3:c7:52:fb:7d:02:b1:a7:0b:4c:2d:a6:2a:b0:
                    57:6b:5e:0b:f9:9e:4b:e7:d0:ac:55:43:47:fa:b1:
                    e0:fc:b0:63:30:84:31:f5:95:44:90:9a:b7:22:01:
                    6f:c7:17:16:be:5a:19:ee:47:35:90:a5:5e:27:ba:
                    86:47:3b:c5:63:d2:f2:c6:a1:db:ac:be:b1:2f:4c:
                    c2:98:86:19:72:d5:f9:12:45:09:bc:23:e2:00:eb:
                    4d:ba:99:71:b5:4a:fb:49:8c:4d:f3:0b:4e:cf:48:
                    7b:c8:06:37:92:35:ff:bb:4f:ea:98:af:13:ac:a8:
                    cd:9f:a7:e0:78:db:15:bc:3b
                Exponent: 65537 (0x10001)
        X509v3 extensions:
            X509v3 Subject Alternative Name: 
                DNS:localhost
            X509v3 Key Usage: 
                Digital Signature, Key Encipherment, Key Agreement
            X509v3 Extended Key Usage: 
                TLS Web Server Authentication
            X509v3 Subject Key Identifier: 
                23:D7:CE:D8:B2:D0:F8:8E:3C:82:26:6C:F1:F5:2A:8A:48:90:58:66
            X509v3 Authority Key Identifier: 
                keyid:12:CA:BA:4B:46:04:A7:75:8A:2C:E8:0E:54:94:BC:12:65:A6:7B:CE

            X509v3 Basic Constraints: 
                CA:FALSE
    Signature Algorithm: sha1WithRSAEncryption
         28:b9:77:ea:4a:8d:d6:a5:fb:72:5b:d6:cd:60:40:33:56:bf:
         dd:23:ff:bf:e8:2e:10:cd:30:ab:24:a4:43:d8:98:71:e3:59:
         66:3e:38:bd:b8:fb:19:1a:13:8f:a1:c8:39:93:b5:83:8d:62:
         52:a9:7a:5b:0d:69:47:40:5c:51:4c:3a:be:a7:c9:5f:7b:93:
         49:20:59:23:30:7c:d9:4a:dd:29:2c:ed:96:fd:cb:b8:13:ff:
         36:2c:27:ce:28:c3:a6:d0:d8:ba:8c:38:9f:78:ff:54:c7:76:
         05:37:47:f5:d3:55:9c:2c:12:41:81:14:ca:48:a2:b7:6d:05:
         49:2b:c5:f5:7b:63:6d:6f:cd:3f:f4:8d:74:51:07:ff:e1:40:
         d5:96:60:d8:c8:38:5a:15:f9:c5:fd:e1:5e:a3:02:95:90:4b:
         fc:8a:42:de:72:31:72:3d:dd:a2:df:19:42:c8:fa:a8:77:11:
         67:e6:64:8c:d0:fd:45:fd:f0:49:8c:e1:85:e6:f5:1f:47:c6:
         ae:f2:70:c3:e8:99:d0:cd:9d:88:6b:33:ba:b9:65:3d:f4:b1:
         f4:d0:3c:76:9c:18:9e:9e:c8:62:29:43:8e:f7:2f:2c:12:37:
         39:02:26:4e:4b:b0:14:30:80:bb:2d:cc:fc:93:dc:c9:8b:c0:
         69:12:71:36
-----BEGIN CERTIFICATE-----
MIIDQTCCAimgAwIBAgIGDPpgvFFuMA0GCSqGSIb3DQEBBQUAMGgxCzAJBgNVBAYT
Ak5OMTEwLwYDVQQKDChFZGVsIEN1cmwgQXJjdGljIElsbHVkaXVtIFJlc2VhcmNo
IENsb3VkMSYwJAYDVQQDDB1Ob3J0aGVybiBOb3doZXJlIFRydXN0IEFuY2hvcjAe
Fw0xNTAzMjExNTA3MTFaFw0yMzA2MDcxNTA3MTFaMFQxCzAJBgNVBAYTAk5OMTEw
LwYDVQQKDChFZGVsIEN1cmwgQXJjdGljIElsbHVkaXVtIFJlc2VhcmNoIENsb3Vk
MRIwEAYDVQQDDAlsb2NhbGhvc3QwgZ8wDQYJKoZIhvcNAQEBBQADgY0AMIGJAoGB
AOPHUvt9ArGnC0wtpiqwV2teC/meS+fQrFVDR/qx4PywYzCEMfWVRJCatyIBb8cX
Fr5aGe5HNZClXie6hkc7xWPS8sah26y+sS9MwpiGGXLV+RJFCbwj4gDrTbqZcbVK
+0mMTfMLTs9Ie8gGN5I1/7tP6pivE6yozZ+n4HjbFbw7AgMBAAGjgYgwgYUwFgYD
VR0RBA8wDYILbG9jYWxob3N0AGgwCwYDVR0PBAQDAgOoMBMGA1UdJQQMMAoGCCsG
AQUFBwMBMB0GA1UdDgQWBBQj187YstD4jjyCJmzx9SqKSJBYZjAfBgNVHSMEGDAW
gBQSyrpLRgSndYos6A5UlLwSZaZ7zjAJBgNVHRMEAjAAMA0GCSqGSIb3DQEBBQUA
A4IBAQAouXfqSo3WpftyW9bNYEAzVr/dI/+/6C4QzTCrJKRD2Jhx41lmPji9uPsZ
GhOPocg5k7WDjWJSqXpbDWlHQFxRTDq+p8lfe5NJIFkjMHzZSt0pLO2W/cu4E/82
LCfOKMOm0Ni6jDifeP9Ux3YFN0f101WcLBJBgRTKSKK3bQVJK8X1e2Ntb80/9I10
UQf/4UDVlmDYyDhaFfnF/eFeowKVkEv8ikLecjFyPd2i3xlCyPqodxFn5mSM0P1F
/fBJjOGF5vUfR8au8nDD6JnQzZ2IazO6uWU99LH00Dx2nBienshiKUOO9y8sEjc5
AiZOS7AUMIC7Lcz8k9zJi8BpEnE2
-----END CERTIFICATE-----
