Certificate:
    Data:
        Version: 3 (0x2)
        Serial Number: 16693795668315 (0xf2ed3c2c15b)
    Signature Algorithm: sha256WithRSAEncryption
        Issuer:
            countryName               = NN
            organizationName          = Edel Curl Arctic Illudium Research Cloud
            commonName                = Northern Nowhere Trust Anchor
        Validity
            Not Before: Nov 25 12:32:46 2022 GMT
            Not After : Apr 30 12:32:46 2039 GMT
        Subject:
            countryName               = NN
            organizationName          = Edel Curl Arctic Illudium Research Cloud
            commonName                = Northern Nowhere Trust Anchor
        Subject Public Key Info:
            Public Key Algorithm: rsaEncryption
                Public-Key: (2048 bit)
                Modulus:
                    00:ed:13:ed:07:b6:ec:f7:fe:2b:93:d9:0a:e7:8e:
                    2c:9c:51:34:48:d1:aa:98:58:7e:7a:a3:6a:b7:0e:
                    72:1a:11:10:ba:e6:6c:4e:9e:e0:01:d9:0c:4d:07:
                    cb:39:22:a9:71:dd:bd:2c:6e:82:dd:eb:4d:af:e2:
                    ed:09:e7:e1:13:fc:7b:bf:e2:a7:04:d9:8e:4b:e1:
                    63:cc:d6:ec:07:24:35:4f:cf:9f:42:89:0e:c9:7f:
                    1c:81:2d:a5:10:4d:61:7a:1a:d4:26:be:74:8c:26:
                    94:49:d7:fb:6c:09:6a:33:92:8c:c7:af:81:4f:dc:
                    c1:af:8a:78:81:d7:98:f6:2c:6e:aa:f4:f6:c6:2b:
                    e7:ae:47:cd:a5:50:68:c8:3a:20:cb:6e:66:8f:ff:
                    46:e2:37:61:45:d1:87:16:a6:66:08:cb:8a:57:3a:
                    06:89:54:af:d5:10:a1:01:99:bf:93:4c:e5:30:c5:
                    9a:42:6b:d7:85:50:d8:0f:8f:1b:95:b3:7a:79:4d:
                    48:84:44:1b:58:8e:0d:d7:f6:71:6c:34:77:37:a8:
                    8c:d7:fe:eb:69:fa:eb:6f:a1:b3:ba:79:19:ce:47:
                    e5:ec:fb:7d:b3:9d:a0:ef:60:0d:43:da:9a:0b:7f:
                    31:fa:a9:5e:4d:a2:ff:70:7a:2c:3e:af:de:be:58:
                    50:65
                Exponent: 65537 (0x10001)
        X509v3 extensions:
            X509v3 Basic Constraints: critical
                CA:TRUE
            X509v3 Key Usage: critical
                Certificate Sign, CRL Sign
            X509v3 Subject Key Identifier: 
                52:40:EE:E1:4F:95:58:29:CA:84:67:8C:0F:8C:CC:FE:8F:A9:FA:A8
            X509v3 Authority Key Identifier: 
                keyid:52:40:EE:E1:4F:95:58:29:CA:84:67:8C:0F:8C:CC:FE:8F:A9:FA:A8

            Authority Information Access: 
                CA Issuers - URI:http://test.curl.se/ca/EdelCurlRoot.cer

            X509v3 CRL Distribution Points: 

                Full Name:
                  URI:http://test.curl.se/ca/EdelCurlRoot.crl

    Signature Algorithm: sha256WithRSAEncryption
         5d:d7:5d:15:93:31:d9:48:7c:15:6f:72:8e:ec:60:00:c2:89:
         02:e0:26:91:c9:71:ec:e0:7e:90:62:ae:e0:56:e4:c7:cd:25:
         27:fb:fb:b7:43:cc:50:0a:36:e4:18:b8:40:56:34:2c:18:41:
         a8:5c:04:f8:cb:75:d8:96:aa:52:93:d1:e3:67:5a:4f:80:55:
         ba:f7:66:88:a2:50:6c:3b:83:7a:72:04:73:66:25:dd:a6:b2:
         6b:3e:9d:17:55:ba:37:50:be:1e:a7:46:09:21:dc:68:c8:04:
         55:5f:dd:ff:b2:16:3f:39:cc:8f:66:2f:ee:d7:81:da:43:15:
         4b:ef:3a:b6:c3:44:a7:57:a9:d8:97:7a:37:41:13:2e:b7:db:
         d1:6e:23:09:60:a2:8f:28:f8:ca:a6:45:93:d3:63:da:79:63:
         12:c4:3e:de:e2:5e:25:f6:06:bf:2b:8c:38:8d:0d:4e:6e:af:
         c3:d6:2f:7b:26:c2:6a:f6:fa:35:2d:7a:25:05:03:e5:b1:65:
         a8:17:bc:9c:2b:82:6c:c6:9b:32:08:1a:10:a4:84:77:18:6b:
         fd:96:b3:c2:4f:64:08:08:fd:f3:eb:ff:a4:ea:1f:2a:93:19:
         e5:6e:55:aa:60:81:01:0e:db:4b:07:34:8b:d4:3b:78:87:47:
         a9:5d:58:39
-----BEGIN CERTIFICATE-----
MIIENDCCAxygAwIBAgIGDy7TwsFbMA0GCSqGSIb3DQEBCwUAMGgxCzAJBgNVBAYT
Ak5OMTEwLwYDVQQKDChFZGVsIEN1cmwgQXJjdGljIElsbHVkaXVtIFJlc2VhcmNo
IENsb3VkMSYwJAYDVQQDDB1Ob3J0aGVybiBOb3doZXJlIFRydXN0IEFuY2hvcjAe
Fw0yMjExMjUxMjMyNDZaFw0zOTA0MzAxMjMyNDZaMGgxCzAJBgNVBAYTAk5OMTEw
LwYDVQQKDChFZGVsIEN1cmwgQXJjdGljIElsbHVkaXVtIFJlc2VhcmNoIENsb3Vk
MSYwJAYDVQQDDB1Ob3J0aGVybiBOb3doZXJlIFRydXN0IEFuY2hvcjCCASIwDQYJ
KoZIhvcNAQEBBQADggEPADCCAQoCggEBAO0T7Qe27Pf+K5PZCueOLJxRNEjRqphY
fnqjarcOchoRELrmbE6e4AHZDE0HyzkiqXHdvSxugt3rTa/i7Qnn4RP8e7/ipwTZ
jkvhY8zW7AckNU/Pn0KJDsl/HIEtpRBNYXoa1Ca+dIwmlEnX+2wJajOSjMevgU/c
wa+KeIHXmPYsbqr09sYr565HzaVQaMg6IMtuZo//RuI3YUXRhxamZgjLilc6BolU
r9UQoQGZv5NM5TDFmkJr14VQ2A+PG5WzenlNSIREG1iODdf2cWw0dzeojNf+62n6
62+hs7p5Gc5H5ez7fbOdoO9gDUPamgt/MfqpXk2i/3B6LD6v3r5YUGUCAwEAAaOB
4zCB4DAPBgNVHRMBAf8EBTADAQH/MA4GA1UdDwEB/wQEAwIBBjAdBgNVHQ4EFgQU
UkDu4U+VWCnKhGeMD4zM/o+p+qgwHwYDVR0jBBgwFoAUUkDu4U+VWCnKhGeMD4zM
/o+p+qgwQwYIKwYBBQUHAQEENzA1MDMGCCsGAQUFBzAChidodHRwOi8vdGVzdC5j
dXJsLnNlL2NhL0VkZWxDdXJsUm9vdC5jZXIwOAYDVR0fBDEwLzAtoCugKYYnaHR0
cDovL3Rlc3QuY3VybC5zZS9jYS9FZGVsQ3VybFJvb3QuY3JsMA0GCSqGSIb3DQEB
CwUAA4IBAQBd110VkzHZSHwVb3KO7GAAwokC4CaRyXHs4H6QYq7gVuTHzSUn+/u3
Q8xQCjbkGLhAVjQsGEGoXAT4y3XYlqpSk9HjZ1pPgFW692aIolBsO4N6cgRzZiXd
prJrPp0XVbo3UL4ep0YJIdxoyARVX93/shY/OcyPZi/u14HaQxVL7zq2w0SnV6nY
l3o3QRMut9vRbiMJYKKPKPjKpkWT02PaeWMSxD7e4l4l9ga/K4w4jQ1Obq/D1i97
JsJq9vo1LXolBQPlsWWoF7ycK4JsxpsyCBoQpIR3GGv9lrPCT2QICP3z6/+k6h8q
kxnlblWqYIEBDttLBzSL1Dt4h0epXVg5
-----END CERTIFICATE-----
