Certificate:
    Data:
        Version: 3 (0x2)
        Serial Number:
            0b:98:95:00:0c:7e
        Signature Algorithm: sha1WithRSAEncryption
        Issuer:
            countryName               = NN
            organizationName          = Edel Curl Arctic Illudium Research Cloud
            commonName                = Nothern Nowhere Trust Anchor
        Validity
            Not Before: May 27 21:37:54 2010 GMT
            Not After : Aug 13 21:37:54 2018 GMT
        Subject:
            countryName               = NN
            organizationName          = Edel Curl Arctic Illudium Research Cloud
            commonName                = localhost
        Subject Public Key Info:
            Public Key Algorithm: rsaEncryption
                Public-Key: (1024 bit)
                Modulus:
                    00:cc:a9:91:2b:22:e8:90:2b:e5:4c:dc:ae:6d:da:
                    4c:f3:32:cc:a5:68:67:5a:3b:b9:86:a3:95:88:3e:
                    e8:63:c3:ed:00:60:19:03:2b:5d:5b:56:8a:da:21:
                    5e:71:5c:d1:e3:de:51:18:c1:17:14:b1:33:90:00:
                    5c:9a:e5:73:0b:a8:88:9c:d0:0b:54:bc:ea:3a:39:
                    dd:f6:65:81:4b:29:99:4c:71:d3:f7:69:7f:80:e8:
                    e8:6d:61:41:83:87:eb:ac:2c:bd:0f:eb:1b:fd:a2:
                    37:97:6d:31:56:ba:4b:51:dd:b1:01:eb:89:f8:25:
                    de:5b:a3:e5:b2:3f:4c:77:53
                Exponent: 65537 (0x10001)
        X509v3 extensions:
            X509v3 Subject Alternative Name: 
                DNS:localhost
            X509v3 Key Usage: 
                Key Encipherment
            X509v3 Extended Key Usage: 
                TLS Web Server Authentication
            X509v3 Subject Key Identifier: 
                3B:2B:84:0D:23:3C:46:F9:9B:E5:C2:FA:B7:30:E7:AC:E3:ED:09:C3
            X509v3 Authority Key Identifier: 
                keyid:AD:3E:E2:39:07:B8:5C:AA:26:90:94:4C:26:69:21:83:E2:4E:36:94

            X509v3 Basic Constraints: critical
                CA:FALSE
    Signature Algorithm: sha1WithRSAEncryption
        a2:fa:61:4e:c0:10:1f:f8:38:2c:fd:a6:74:85:df:8e:ee:41:
        90:a1:d7:c9:32:65:5d:61:d5:13:51:3b:11:1c:7b:01:06:70:
        9f:93:52:54:15:bd:93:3a:f8:40:e3:e2:ab:01:96:fb:73:c5:
        42:2c:ad:ce:e8:52:57:db:b6:15:90:75:e3:e5:75:99:b0:83:
        ed:b0:fc:f2:d0:d9:3d:68:1c:d9:b4:cd:a1:a9:40:19:44:46:
        14:8b:11:6e:2e:1c:65:85:73:45:f0:8b:4f:ea:01:2d:61:0f:
        ae:0d:70:0c:d3:3c:1c:1f:24:66:a3:0b:62:d1:87:1e:8e:96:
        f6:43:cf:1c:24:e7:94:d0:7e:b0:ee:1b:6f:14:1f:04:35:e8:
        fc:3c:c8:9e:e3:6e:0e:4c:7d:a9:23:97:2d:6e:b1:4d:e3:05:
        1b:ce:86:2f:2f:b3:c9:60:47:58:ac:ea:4c:cb:c2:7b:0f:08:
        b8:a7:90:e7:22:32:70:f6:09:3e:f9:54:94:b0:37:50:22:60:
        49:1c:84:9e:1a:22:0c:3e:a9:16:7c:5e:b1:50:13:6b:82:14:
        d3:8a:3d:4d:ed:18:ca:40:59:d6:b9:72:9f:64:e5:0b:e7:a6:
        b8:ee:29:b5:6a:ec:82:b2:94:56:36:e3:87:b3:07:aa:69:b8:
        2c:ef:0c:14
-----BEGIN CERTIFICATE-----
MIIDQzCCAiugAwIBAgIGC5iVAAx+MA0GCSqGSIb3DQEBBQUAMGcxCzAJBgNVBAYT
Ak5OMTEwLwYDVQQKDChFZGVsIEN1cmwgQXJjdGljIElsbHVkaXVtIFJlc2VhcmNo
IENsb3VkMSUwIwYDVQQDDBxOb3RoZXJuIE5vd2hlcmUgVHJ1c3QgQW5jaG9yMB4X
DTEwMDUyNzIxMzc1NFoXDTE4MDgxMzIxMzc1NFowVDELMAkGA1UEBhMCTk4xMTAv
BgNVBAoMKEVkZWwgQ3VybCBBcmN0aWMgSWxsdWRpdW0gUmVzZWFyY2ggQ2xvdWQx
EjAQBgNVBAMMCWxvY2FsaG9zdDCBnzANBgkqhkiG9w0BAQEFAAOBjQAwgYkCgYEA
zKmRKyLokCvlTNyubdpM8zLMpWhnWju5hqOViD7oY8PtAGAZAytdW1aK2iFecVzR
495RGMEXFLEzkABcmuVzC6iInNALVLzqOjnd9mWBSymZTHHT92l/gOjobWFBg4fr
rCy9D+sb/aI3l20xVrpLUd2xAeuJ+CXeW6Plsj9Md1MCAwEAAaOBizCBiDAWBgNV
HREEDzANggtsb2NhbGhvc3QAaDALBgNVHQ8EBAMCBSAwEwYDVR0lBAwwCgYIKwYB
BQUHAwEwHQYDVR0OBBYEFDsrhA0jPEb5m+XC+rcw56zj7QnDMB8GA1UdIwQYMBaA
FK0+4jkHuFyqJpCUTCZpIYPiTjaUMAwGA1UdEwEB/wQCMAAwDQYJKoZIhvcNAQEF
BQADggEBAKL6YU7AEB/4OCz9pnSF347uQZCh18kyZV1h1RNROxEcewEGcJ+TUlQV
vZM6+EDj4qsBlvtzxUIsrc7oUlfbthWQdePldZmwg+2w/PLQ2T1oHNm0zaGpQBlE
RhSLEW4uHGWFc0Xwi0/qAS1hD64NcAzTPBwfJGajC2LRhx6OlvZDzxwk55TQfrDu
G28UHwQ16Pw8yJ7jbg5Mfakjly1usU3jBRvOhi8vs8lgR1is6kzLwnsPCLinkOci
MnD2CT75VJSwN1AiYEkchJ4aIgw+qRZ8XrFQE2uCFNOKPU3tGMpAWda5cp9k5Qvn
prjuKbVq7IKylFY244ezB6ppuCzvDBQ=
-----END CERTIFICATE-----
