extensions = x509v3
[ x509v3 ]
subjectAltName = DNS:localhost,DNS:localhost1,DNS:localhost2
keyUsage	= keyEncipherment,digitalSignature,keyAgreement
extendedKeyUsage = serverAuth
subjectKeyIdentifier = hash
authorityKeyIdentifier = keyid
basicConstraints = CA:false
authorityInfoAccess     = @issuer_info
crlDistributionPoints   = @crl_info

[ crl_ext ]
authorityKeyIdentifier  = keyid:always
authorityInfoAccess     = @issuer_info

[ issuer_info ]
caIssuers;URI.0         = http://test.curl.se/ca/EdelCurlRoot.cer

[ crl_info ]
URI.0                   = http://test.curl.se/ca/EdelCurlRoot.crl

[ req ]
default_bits                    = 1024
distinguished_name              = req_DN
default_md			= sha256
string_mask			= utf8only

[ req_DN ]
countryName                     = "Country Name is Northern Nowhere"
countryName_value            = NN
organizationName              = "Organization Name"
organizationName_value     = Edel Curl Arctic Illudium Research Cloud
commonName                      = "Common Name"
commonName_value              = localhost.nn

[something]
# The key
# the certificate
# some dhparam
-----BEGIN RSA PRIVATE KEY-----
MIIEowIBAAKCAQEAy4ta0HrBQAMj5jxFRO65wf0JXO8kd0qqFEKq3AWhjQOeRzp6
/uJR4wWsrWJ0h72ppDus8MKUfRtt6utPvz3HkZK59TKz2KgoRFdjiUoU8Ejkn8JM
10f+AxVSjwvyAQxmOe8ZxuDqVaQzQ/X0KjA23sbbPF1s+ckfX7gP4+RzhlBLVxdM
adijeebREC/VJJBLf6YuncRs+K2CRleO/kX/KrOG8Djk184R6PO1gX0EDTPqmTdW
ZQp+fh8gv5OMvFJrk5bkU/aB0AN8KrUFxTkESNtMtOCE+VopnHKt2XquonHnQG1U
b8Z2HXOcJpc5jJfEoeblJt8cH1D8EUDMWvUDdwIDAQABAoIBACFvEYq/LzEhkusF
qWcqQ27+7mPKkFXb+NX9IW2kqyWrm3sduwhVCphc3UFZs8R8PfpRJxYhEB0AvWxi
HKZQMpDR5iPFoU8MSBj5tcreVVQm1Q787nxKQgolnXsLvkO30q7ffH9zgGpy30zh
gKrRYqHzTh27RuQ8yh+B73JCm0tLaCSDVZQg342YMWzRI4bobaCVQYnQUzfQQ2c5
ZP82CNKYvncbA92HtM53u1VnWss9Ov0OM8NtLtQPk0Tgn4gVKJ87WN/GWSRuchD1
ROrLZH0oLBlrXFYKioHvK79qMg3Hg3pbDcJgJqs+d2BfhQXbky5XBrfCi9RVbZZS
TsL22xkCgYEA59T91kPmDRiZeBZ1SFduMOe/ApD6UX6A2jkK64FAH0CF9yF9di0O
OS6RxbHWBHqBDEMc4RwSDcuWCV2a2lm9kVrJ85CaGutL/ti2VRlqKpAxQAUG4vUV
KapDOF6iGPpFs0TxdWCtB/8q0mrIG6EhakqpMeKsUwZSdfhsRJzogcMCgYEA4MNw
C41DqeSaEFlKS+0eklRMDBZB6gKLs/pyLuaPrvV78RMREUpsdpSnSUVsEJwXbpVt
UI112px1FXgvbjBXDaBqAoxZybtG1APwPABLMYHDNBny8QHAbsbjZEvVMlNDBsc5
kVtj4v3L7JmdYcHhGpYo9kkjdOqjruMQesaACD0CgYEAzrdfw991UTYfGjJET8YN
7jOmYR5u5Z28PVlhwE7Wo0dAbPUCzw4rwZchyjrhT8sAKLPrG1qRSpW+6gj6HDqq
yuI+cxz8HIa0k8AfDNCFlwBNuf0Bf/vy69zy5V+UgFshLVGLUBNtFlVTlJ48Yk6R
4hpCtcWdzMY1XxWtTJzwwUsCgYBnDFOviCnQl7Wm7zkoDGPq1Ok01XOM9XPVpWp6
ZEzV+0jC42n80nFeAJOd/U0pZFc95RaESwcQnpDzsfGVBGa1IanY1z5HRiyYAeI/
sCbJYOP9XDRNGO+AGoGgtz/c3d2qGuci5JKsPI4lQNyuODSbeuL239t4vCclhIdG
swF6RQKBgFk5Exn8SnfNvjJl9XCEl25dFMilM6coJURXo5CiXmcN6rjzsgy033WU
S5cbifZXcBuwKplxMXoHXVgp7e+XGo35siJEjIYIzcRIGMouIx9u3zL0hOYHE6wP
6OD0sr/Zbg8+0Hqm200WdqV79WsDx8GX3MlJ+/Dv4tyxGpt7S5Wh
-----END RSA PRIVATE KEY-----
Certificate:
    Data:
        Version: 3 (0x2)
        Serial Number: 16693795668391 (0xf2ed3c2c1a7)
    Signature Algorithm: sha256WithRSAEncryption
        Issuer:
            countryName               = NN
            organizationName          = Edel Curl Arctic Illudium Research Cloud
            commonName                = Northern Nowhere Trust Anchor
        Validity
            Not Before: Nov 25 12:32:46 2022 GMT
            Not After : Feb 11 12:32:46 2031 GMT
        Subject:
            countryName               = NN
            organizationName          = Edel Curl Arctic Illudium Research Cloud
            commonName                = localhost.nn
        Subject Public Key Info:
            Public Key Algorithm: rsaEncryption
                Public-Key: (2048 bit)
                Modulus:
                    00:cb:8b:5a:d0:7a:c1:40:03:23:e6:3c:45:44:ee:
                    b9:c1:fd:09:5c:ef:24:77:4a:aa:14:42:aa:dc:05:
                    a1:8d:03:9e:47:3a:7a:fe:e2:51:e3:05:ac:ad:62:
                    74:87:bd:a9:a4:3b:ac:f0:c2:94:7d:1b:6d:ea:eb:
                    4f:bf:3d:c7:91:92:b9:f5:32:b3:d8:a8:28:44:57:
                    63:89:4a:14:f0:48:e4:9f:c2:4c:d7:47:fe:03:15:
                    52:8f:0b:f2:01:0c:66:39:ef:19:c6:e0:ea:55:a4:
                    33:43:f5:f4:2a:30:36:de:c6:db:3c:5d:6c:f9:c9:
                    1f:5f:b8:0f:e3:e4:73:86:50:4b:57:17:4c:69:d8:
                    a3:79:e6:d1:10:2f:d5:24:90:4b:7f:a6:2e:9d:c4:
                    6c:f8:ad:82:46:57:8e:fe:45:ff:2a:b3:86:f0:38:
                    e4:d7:ce:11:e8:f3:b5:81:7d:04:0d:33:ea:99:37:
                    56:65:0a:7e:7e:1f:20:bf:93:8c:bc:52:6b:93:96:
                    e4:53:f6:81:d0:03:7c:2a:b5:05:c5:39:04:48:db:
                    4c:b4:e0:84:f9:5a:29:9c:72:ad:d9:7a:ae:a2:71:
                    e7:40:6d:54:6f:c6:76:1d:73:9c:26:97:39:8c:97:
                    c4:a1:e6:e5:26:df:1c:1f:50:fc:11:40:cc:5a:f5:
                    03:77
                Exponent: 65537 (0x10001)
        X509v3 extensions:
            X509v3 Subject Alternative Name: 
                DNS:localhost, DNS:localhost1, DNS:localhost2
            X509v3 Key Usage: 
                Digital Signature, Key Encipherment, Key Agreement
            X509v3 Extended Key Usage: 
                TLS Web Server Authentication
            X509v3 Subject Key Identifier: 
                EA:00:0E:21:A0:51:6A:83:35:50:F0:A1:82:DF:21:1F:CB:60:10:F6
            X509v3 Authority Key Identifier: 
                keyid:52:40:EE:E1:4F:95:58:29:CA:84:67:8C:0F:8C:CC:FE:8F:A9:FA:A8

            X509v3 Basic Constraints: 
                CA:FALSE
            Authority Information Access: 
                CA Issuers - URI:http://test.curl.se/ca/EdelCurlRoot.cer

            X509v3 CRL Distribution Points: 

                Full Name:
                  URI:http://test.curl.se/ca/EdelCurlRoot.crl

    Signature Algorithm: sha256WithRSAEncryption
         31:15:ee:12:39:5e:08:14:9e:85:8c:32:f9:92:a9:0f:fa:9d:
         0d:fb:07:77:f3:92:5b:63:73:48:37:3a:c0:e9:e9:36:fd:be:
         8f:9d:0d:d8:33:9a:e0:2f:5b:de:a0:55:62:f7:9f:be:60:a4:
         98:dc:fe:2b:d6:84:3b:ef:6b:f2:a3:97:7e:14:6d:38:8f:41:
         be:e1:72:b7:d5:5d:ff:73:0c:ef:76:69:cc:c8:50:ed:49:44:
         9c:c4:dd:e5:02:1d:7e:17:b3:3a:79:39:0a:7a:94:a8:0d:3b:
         17:c3:8a:7d:42:a6:e1:08:e5:09:51:e1:bf:6c:65:5b:e4:db:
         49:78:de:0c:3a:38:23:38:13:13:98:14:a8:e0:e7:13:ce:07:
         21:88:7f:08:b9:79:db:c7:90:89:2f:9a:1b:ed:5e:3b:84:a1:
         a9:31:19:5c:a7:1e:5d:2b:33:07:36:67:4e:c4:06:0c:ed:0a:
         f5:e8:c4:c8:e5:8b:b3:43:e1:4a:db:9d:77:a0:a6:7e:0d:ef:
         e0:86:85:61:01:b0:7e:a0:24:2e:a6:a5:eb:c0:90:ab:e9:1a:
         2f:32:9d:25:8e:40:90:55:87:e2:a4:67:70:77:4c:a3:39:72:
         5b:fb:3d:20:81:3e:18:9e:5c:0e:a5:4f:0d:6e:e7:a3:8b:c1:
         15:84:b5:1b
-----BEGIN CERTIFICATE-----
MIIEXzCCA0egAwIBAgIGDy7TwsGnMA0GCSqGSIb3DQEBCwUAMGgxCzAJBgNVBAYT
Ak5OMTEwLwYDVQQKDChFZGVsIEN1cmwgQXJjdGljIElsbHVkaXVtIFJlc2VhcmNo
IENsb3VkMSYwJAYDVQQDDB1Ob3J0aGVybiBOb3doZXJlIFRydXN0IEFuY2hvcjAe
Fw0yMjExMjUxMjMyNDZaFw0zMTAyMTExMjMyNDZaMFcxCzAJBgNVBAYTAk5OMTEw
LwYDVQQKDChFZGVsIEN1cmwgQXJjdGljIElsbHVkaXVtIFJlc2VhcmNoIENsb3Vk
MRUwEwYDVQQDDAxsb2NhbGhvc3Qubm4wggEiMA0GCSqGSIb3DQEBAQUAA4IBDwAw
ggEKAoIBAQDLi1rQesFAAyPmPEVE7rnB/Qlc7yR3SqoUQqrcBaGNA55HOnr+4lHj
BaytYnSHvamkO6zwwpR9G23q60+/PceRkrn1MrPYqChEV2OJShTwSOSfwkzXR/4D
FVKPC/IBDGY57xnG4OpVpDND9fQqMDbexts8XWz5yR9fuA/j5HOGUEtXF0xp2KN5
5tEQL9UkkEt/pi6dxGz4rYJGV47+Rf8qs4bwOOTXzhHo87WBfQQNM+qZN1ZlCn5+
HyC/k4y8UmuTluRT9oHQA3wqtQXFOQRI20y04IT5Wimccq3Zeq6icedAbVRvxnYd
c5wmlzmMl8Sh5uUm3xwfUPwRQMxa9QN3AgMBAAGjggEeMIIBGjAsBgNVHREEJTAj
gglsb2NhbGhvc3SCCmxvY2FsaG9zdDGCCmxvY2FsaG9zdDIwCwYDVR0PBAQDAgOo
MBMGA1UdJQQMMAoGCCsGAQUFBwMBMB0GA1UdDgQWBBTqAA4hoFFqgzVQ8KGC3yEf
y2AQ9jAfBgNVHSMEGDAWgBRSQO7hT5VYKcqEZ4wPjMz+j6n6qDAJBgNVHRMEAjAA
MEMGCCsGAQUFBwEBBDcwNTAzBggrBgEFBQcwAoYnaHR0cDovL3Rlc3QuY3VybC5z
ZS9jYS9FZGVsQ3VybFJvb3QuY2VyMDgGA1UdHwQxMC8wLaAroCmGJ2h0dHA6Ly90
ZXN0LmN1cmwuc2UvY2EvRWRlbEN1cmxSb290LmNybDANBgkqhkiG9w0BAQsFAAOC
AQEAMRXuEjleCBSehYwy+ZKpD/qdDfsHd/OSW2NzSDc6wOnpNv2+j50N2DOa4C9b
3qBVYvefvmCkmNz+K9aEO+9r8qOXfhRtOI9BvuFyt9Vd/3MM73ZpzMhQ7UlEnMTd
5QIdfhezOnk5CnqUqA07F8OKfUKm4QjlCVHhv2xlW+TbSXjeDDo4IzgTE5gUqODn
E84HIYh/CLl528eQiS+aG+1eO4ShqTEZXKceXSszBzZnTsQGDO0K9ejEyOWLs0Ph
Studd6Cmfg3v4IaFYQGwfqAkLqal68CQq+kaLzKdJY5AkFWH4qRncHdMozlyW/s9
IIE+GJ5cDqVPDW7no4vBFYS1Gw==
-----END CERTIFICATE-----
