Certificate:
    Data:
        Version: 3 (0x2)
        Serial Number: 15373412638574 (0xdfb66cc9f6e)
        Signature Algorithm: sha256WithRSAEncryption
        Issuer:
            countryName               = NN
            organizationName          = Edel Curl Arctic Illudium Research Cloud
            commonName                = Northern Nowhere Trust Anchor
        Validity
            Not Before: Sep 19 07:14:23 2018 GMT
            Not After : Dec  6 07:14:23 2026 GMT
        Subject:
            countryName               = NN
            organizationName          = Edel Curl Arctic Illudium Research Cloud
            commonName                = localhost
        Subject Public Key Info:
            Public Key Algorithm: rsaEncryption
                RSA Public-Key: (2048 bit)
                Modulus:
                    00:b8:fe:6a:b8:8a:0e:bb:34:90:cf:48:e7:dd:0d:
                    26:32:67:0a:4e:aa:9c:4c:fd:eb:6f:e1:b8:98:5d:
                    b1:43:d4:09:4f:62:d8:4d:7c:d6:0b:36:93:57:fb:
                    61:02:b9:8d:35:20:9b:de:7d:a3:d5:0d:8e:44:98:
                    d4:91:31:a2:1e:9a:84:cc:00:52:4b:78:c3:57:57:
                    6b:d7:25:29:bf:14:50:20:6f:1a:ee:3c:fc:bb:bf:
                    1e:1f:cd:a8:b7:fd:8d:ae:cc:78:07:c0:03:86:fd:
                    ed:db:86:c1:2b:81:55:45:4a:50:07:fd:8d:85:a4:
                    e9:29:dc:bb:e2:d5:dd:dd:3a:f8:62:21:3c:30:d0:
                    5a:88:71:67:53:af:78:ea:7e:08:40:32:65:16:7c:
                    bf:c9:ba:f5:06:1e:02:f2:f8:b7:39:c8:85:c0:78:
                    14:d2:d9:fd:2b:8b:0c:3f:da:83:48:2f:26:24:34:
                    1b:fa:70:07:46:b4:01:ea:0d:cc:d7:81:a9:f1:66:
                    c5:4e:3d:7e:b4:b3:b4:64:a3:ea:0f:ff:01:54:c1:
                    8b:1f:e9:65:d5:fc:bc:71:43:69:2e:50:f4:03:12:
                    a5:91:95:20:36:dc:91:eb:aa:ab:8f:30:6c:66:22:
                    20:de:1d:b8:59:d1:16:a8:71:55:4a:66:fe:76:9c:
                    9e:e9
                Exponent: 65537 (0x10001)
        X509v3 extensions:
            X509v3 Subject Alternative Name: 
                DNS:localhost
            X509v3 Key Usage: 
                Digital Signature, Key Encipherment, Key Agreement
            X509v3 Extended Key Usage: 
                TLS Web Server Authentication
            X509v3 Subject Key Identifier: 
                19:D0:5D:AA:0F:E0:68:EF:E0:62:65:20:D3:A5:B7:1A:94:90:A9:26
            X509v3 Authority Key Identifier: 
                keyid:12:CA:BA:4B:46:04:A7:75:8A:2C:E8:0E:54:94:BC:12:65:A6:7B:CE

            X509v3 Basic Constraints: 
                CA:FALSE
    Signature Algorithm: sha256WithRSAEncryption
         4d:5c:e6:91:e2:35:48:aa:84:b3:45:97:bd:5c:36:e7:37:d1:
         5e:33:17:2a:c1:5b:d2:18:70:3d:f5:8f:66:cb:49:b0:14:ee:
         5b:4b:c5:dd:51:75:2d:94:10:b4:5e:61:91:08:cf:35:71:36:
         be:1b:c1:da:26:df:63:8b:cb:2c:35:74:8e:7c:9f:12:90:09:
         81:65:a8:b5:fa:e7:2d:cc:33:55:f4:c4:ed:c8:ac:93:92:2d:
         1c:db:5c:4d:d3:ca:75:68:c6:66:83:98:a1:6b:01:91:fb:e0:
         04:59:95:6a:5a:7a:8f:5d:55:bf:ff:20:77:49:ad:10:be:7e:
         12:3d:60:23:f3:94:cf:6a:d1:2b:d9:84:d9:57:0b:c1:b6:fb:
         2d:4f:64:cf:d9:8f:8a:b0:2b:d2:34:fc:b4:58:b0:6d:f3:31:
         36:42:3b:e3:6e:cd:19:77:4d:49:29:99:b1:42:27:ae:da:93:
         0c:d6:fb:bf:ad:c1:39:ec:7c:b9:94:27:60:75:e2:d3:3c:83:
         62:a8:68:d3:ce:7c:a4:e8:f0:b6:04:93:82:3f:8f:71:ea:60:
         19:73:50:2e:f3:8c:09:6f:6f:3b:c4:01:b6:c8:0a:b2:19:89:
         42:f4:6a:76:e0:0e:59:c4:20:0a:d3:50:e1:9f:b1:9b:a2:d2:
         d1:cd:65:a5
-----BEGIN CERTIFICATE-----
MIIDxTCCAq2gAwIBAgIGDftmzJ9uMA0GCSqGSIb3DQEBCwUAMGgxCzAJBgNVBAYT
Ak5OMTEwLwYDVQQKDChFZGVsIEN1cmwgQXJjdGljIElsbHVkaXVtIFJlc2VhcmNo
IENsb3VkMSYwJAYDVQQDDB1Ob3J0aGVybiBOb3doZXJlIFRydXN0IEFuY2hvcjAe
Fw0xODA5MTkwNzE0MjNaFw0yNjEyMDYwNzE0MjNaMFQxCzAJBgNVBAYTAk5OMTEw
LwYDVQQKDChFZGVsIEN1cmwgQXJjdGljIElsbHVkaXVtIFJlc2VhcmNoIENsb3Vk
MRIwEAYDVQQDDAlsb2NhbGhvc3QwggEiMA0GCSqGSIb3DQEBAQUAA4IBDwAwggEK
AoIBAQC4/mq4ig67NJDPSOfdDSYyZwpOqpxM/etv4biYXbFD1AlPYthNfNYLNpNX
+2ECuY01IJvefaPVDY5EmNSRMaIemoTMAFJLeMNXV2vXJSm/FFAgbxruPPy7vx4f
zai3/Y2uzHgHwAOG/e3bhsErgVVFSlAH/Y2FpOkp3Lvi1d3dOvhiITww0FqIcWdT
r3jqfghAMmUWfL/JuvUGHgLy+Lc5yIXAeBTS2f0riww/2oNILyYkNBv6cAdGtAHq
DczXganxZsVOPX60s7Rko+oP/wFUwYsf6WXV/LxxQ2kuUPQDEqWRlSA23JHrqquP
MGxmIiDeHbhZ0RaocVVKZv52nJ7pAgMBAAGjgYgwgYUwFgYDVR0RBA8wDYILbG9j
YWxob3N0AGgwCwYDVR0PBAQDAgOoMBMGA1UdJQQMMAoGCCsGAQUFBwMBMB0GA1Ud
DgQWBBQZ0F2qD+Bo7+BiZSDTpbcalJCpJjAfBgNVHSMEGDAWgBQSyrpLRgSndYos
6A5UlLwSZaZ7zjAJBgNVHRMEAjAAMA0GCSqGSIb3DQEBCwUAA4IBAQBNXOaR4jVI
qoSzRZe9XDbnN9FeMxcqwVvSGHA99Y9my0mwFO5bS8XdUXUtlBC0XmGRCM81cTa+
G8HaJt9ji8ssNXSOfJ8SkAmBZai1+uctzDNV9MTtyKyTki0c21xN08p1aMZmg5ih
awGR++AEWZVqWnqPXVW//yB3Sa0Qvn4SPWAj85TPatEr2YTZVwvBtvstT2TP2Y+K
sCvSNPy0WLBt8zE2Qjvjbs0Zd01JKZmxQieu2pMM1vu/rcE57Hy5lCdgdeLTPINi
qGjTznyk6PC2BJOCP49x6mAZc1Au84wJb287xAG2yAqyGYlC9Gp24A5ZxCAK01Dh
n7GbotLRzWWl
-----END CERTIFICATE-----
