extensions = x509v3
[ x509v3 ]
subjectAltName = DNS:localhost1,DNS:localhost2,DNS:localhost
keyUsage	= keyEncipherment,digitalSignature,keyAgreement
extendedKeyUsage = serverAuth
subjectKeyIdentifier = hash
authorityKeyIdentifier = keyid
basicConstraints = CA:false
[ req ]
default_bits                    = 1024
distinguished_name              = req_DN
default_md			= sha256
string_mask			= utf8only
[ req_DN ]
countryName                     = "Country Name is Northern Nowhere"
countryName_value            = NN
organizationName              = "Organization Name"
organizationName_value     = Edel Curl Arctic Illudium Research Cloud
commonName                      = "Common Name"
commonName_value              = localhost.nn

[something]
# The key
# the certificate
# some dhparam
-----BEGIN RSA PRIVATE KEY-----
MIICWwIBAAKBgQCjKnXXv3VBQL5CuLkAKPFFKVW8Nsqmt4aTlyWEqsmArEHZKPuw
aEtb7r2Ug9or9szMEd/7SObp1ZdBf5oNt4eWEiJBKn+VihTWbEs03xgpAQ2yPE3I
xF6H+p+q7qRz6bt0V4UkKlHkQ1xLl1FSuYJunM6uD5FFJfm0JGaORx/X1QIDAQAB
AoGAaC2QGDSSNRuVXxx6YnPBuJrvtsB1G4VKU6nJtq8lARb65CCassOkegow2UZm
YnOtxw4SqGqfpOVPMe66+c8Yrd+6zimC7VorxmfhNxqOO34bxzztKKk8Q7c+odl3
+c4aVnFBk2hzuOW4PuJoFfFNQZWmh/XJdKK85X+bkryS/oECQQDTdzwYyDxvrPaw
ZeR5oDleopk5W5QwmBAq4ehtie1oZfhzlNZzPOjnI9I71MRYdCwkesKHL2k6q7cT
jA4sSmx5AkEAxYc6+o8l0/HE8HzypWe/ZfozaY3ccIFzmvcwQorbCvAxDtZ1DbFy
VWLOgM/6gwDIUDF6ckaInaVmiVJl60Y3PQJAZFBOuO7cBJoHWDytuqiwLl1x1EzG
KpsoKD+MU9I3RewBhUrYxEfjsCpFA8716YQKoK9/ckOiZouoyGQLISWY+QJAG5id
AMxm+Ilafk62h61K7DBcZm7PUViEki3erC1CFPEhqXUEvXkBBDTdrNlholPFqI6B
EN4R0BR/ksfUPV598QJAF8jl/8gz8pmAWmqw8tKbWdQeDgisyTHeYlPMxq4fUbLH
mJk05csSX9CTg4eO7NRRwPxODKmPCd88sZZSOuTQmQ==
-----END RSA PRIVATE KEY-----
Certificate:
    Data:
        Version: 3 (0x2)
        Serial Number: 14725819772555 (0xd649f41ae8b)
    Signature Algorithm: sha1WithRSAEncryption
        Issuer:
            countryName               = NN
            organizationName          = Edel Curl Arctic Illudium Research Cloud
            commonName                = Northern Nowhere Trust Anchor
        Validity
            Not Before: Aug 30 18:32:57 2016 GMT
            Not After : Nov 16 18:32:57 2024 GMT
        Subject:
            countryName               = NN
            organizationName          = Edel Curl Arctic Illudium Research Cloud
            commonName                = localhost.nn
        Subject Public Key Info:
            Public Key Algorithm: rsaEncryption
                Public-Key: (1024 bit)
                Modulus:
                    00:a3:2a:75:d7:bf:75:41:40:be:42:b8:b9:00:28:
                    f1:45:29:55:bc:36:ca:a6:b7:86:93:97:25:84:aa:
                    c9:80:ac:41:d9:28:fb:b0:68:4b:5b:ee:bd:94:83:
                    da:2b:f6:cc:cc:11:df:fb:48:e6:e9:d5:97:41:7f:
                    9a:0d:b7:87:96:12:22:41:2a:7f:95:8a:14:d6:6c:
                    4b:34:df:18:29:01:0d:b2:3c:4d:c8:c4:5e:87:fa:
                    9f:aa:ee:a4:73:e9:bb:74:57:85:24:2a:51:e4:43:
                    5c:4b:97:51:52:b9:82:6e:9c:ce:ae:0f:91:45:25:
                    f9:b4:24:66:8e:47:1f:d7:d5
                Exponent: 65537 (0x10001)
        X509v3 extensions:
            X509v3 Subject Alternative Name: 
                DNS:localhost1, DNS:localhost2, DNS:localhost
            X509v3 Key Usage: 
                Digital Signature, Key Encipherment, Key Agreement
            X509v3 Extended Key Usage: 
                TLS Web Server Authentication
            X509v3 Subject Key Identifier: 
                2C:CF:E3:6E:08:F9:CE:9B:98:3B:B3:17:7F:0C:9D:E4:5B:1B:76:8A
            X509v3 Authority Key Identifier: 
                keyid:12:CA:BA:4B:46:04:A7:75:8A:2C:E8:0E:54:94:BC:12:65:A6:7B:CE

            X509v3 Basic Constraints: 
                CA:FALSE
    Signature Algorithm: sha1WithRSAEncryption
         2e:3d:c1:a2:a7:e4:70:f8:a8:13:86:c3:af:22:1f:e9:e1:62:
         f4:cf:16:66:a8:3b:70:f6:12:30:be:fe:8e:44:1b:71:b5:c1:
         e0:4b:66:c4:5d:d4:d7:7d:49:43:4a:6d:22:1b:ce:3d:e3:14:
         14:b3:6d:3a:93:39:0c:9b:2c:83:35:1d:7e:7c:29:29:3c:51:
         6b:27:c3:5b:2d:f2:61:18:f8:c7:90:be:3b:68:3f:08:9b:ac:
         68:01:d2:0c:ec:aa:5d:9e:78:b7:8b:84:04:01:b2:08:ef:df:
         0c:f2:29:99:fe:61:d1:65:80:aa:ef:df:8e:28:55:a6:f9:88:
         0c:01:bb:fc:1c:9e:9c:08:8d:c5:34:24:91:c1:ac:71:22:e1:
         12:78:e0:45:d5:e2:39:c4:3c:16:09:80:d0:5b:bc:49:0a:4c:
         a3:5b:e1:36:40:ed:26:6d:8d:a0:d3:4a:3c:86:93:2f:d4:0a:
         3c:72:08:62:d7:66:d0:b3:05:c2:0f:1d:af:3c:65:67:f2:6c:
         76:a5:9c:37:ac:c4:ac:96:b7:e4:c0:ef:a4:5b:28:1e:16:09:
         15:f6:7b:bb:5d:a2:94:9a:df:52:7b:ae:c9:39:f4:18:9e:84:
         57:6c:d3:6d:ae:35:38:8f:8f:9b:0d:df:77:69:ae:25:ec:ce:
         d0:2b:bd:8d
-----BEGIN CERTIFICATE-----
MIIDWjCCAkKgAwIBAgIGDWSfQa6LMA0GCSqGSIb3DQEBBQUAMGgxCzAJBgNVBAYT
Ak5OMTEwLwYDVQQKDChFZGVsIEN1cmwgQXJjdGljIElsbHVkaXVtIFJlc2VhcmNo
IENsb3VkMSYwJAYDVQQDDB1Ob3J0aGVybiBOb3doZXJlIFRydXN0IEFuY2hvcjAe
Fw0xNjA4MzAxODMyNTdaFw0yNDExMTYxODMyNTdaMFcxCzAJBgNVBAYTAk5OMTEw
LwYDVQQKDChFZGVsIEN1cmwgQXJjdGljIElsbHVkaXVtIFJlc2VhcmNoIENsb3Vk
MRUwEwYDVQQDDAxsb2NhbGhvc3Qubm4wgZ8wDQYJKoZIhvcNAQEBBQADgY0AMIGJ
AoGBAKMqdde/dUFAvkK4uQAo8UUpVbw2yqa3hpOXJYSqyYCsQdko+7BoS1vuvZSD
2iv2zMwR3/tI5unVl0F/mg23h5YSIkEqf5WKFNZsSzTfGCkBDbI8TcjEXof6n6ru
pHPpu3RXhSQqUeRDXEuXUVK5gm6czq4PkUUl+bQkZo5HH9fVAgMBAAGjgZ4wgZsw
LAYDVR0RBCUwI4IKbG9jYWxob3N0MYIKbG9jYWxob3N0MoIJbG9jYWxob3N0MAsG
A1UdDwQEAwIDqDATBgNVHSUEDDAKBggrBgEFBQcDATAdBgNVHQ4EFgQULM/jbgj5
zpuYO7MXfwyd5FsbdoowHwYDVR0jBBgwFoAUEsq6S0YEp3WKLOgOVJS8EmWme84w
CQYDVR0TBAIwADANBgkqhkiG9w0BAQUFAAOCAQEALj3BoqfkcPioE4bDryIf6eFi
9M8WZqg7cPYSML7+jkQbcbXB4EtmxF3U131JQ0ptIhvOPeMUFLNtOpM5DJssgzUd
fnwpKTxRayfDWy3yYRj4x5C+O2g/CJusaAHSDOyqXZ54t4uEBAGyCO/fDPIpmf5h
0WWAqu/fjihVpvmIDAG7/ByenAiNxTQkkcGscSLhEnjgRdXiOcQ8FgmA0Fu8SQpM
o1vhNkDtJm2NoNNKPIaTL9QKPHIIYtdm0LMFwg8drzxlZ/JsdqWcN6zErJa35MDv
pFsoHhYJFfZ7u12ilJrfUnuuyTn0GJ6EV2zTba41OI+Pmw3fd2muJezO0Cu9jQ==
-----END CERTIFICATE-----
