extensions = x509v3
[ x509v3 ]
subjectAltName = DNS:localhost1,DNS:localhost2,DNS:localhost
keyUsage	= keyEncipherment,digitalSignature,keyAgreement
extendedKeyUsage = serverAuth
subjectKeyIdentifier = hash
authorityKeyIdentifier = keyid
basicConstraints = CA:false
[ req ]
default_bits                    = 1024
distinguished_name              = req_DN
default_md			= sha256
string_mask			= utf8only
[ req_DN ]
countryName                     = "Country Name is Northern Nowhere"
countryName_value            = NN
organizationName              = "Organization Name"
organizationName_value     = Edel Curl Arctic Illudium Research Cloud
commonName                      = "Common Name"
commonName_value              = localhost.nn

[something]
# The key
# the certificate
# some dhparam
-----BEGIN RSA PRIVATE KEY-----
MIIEogIBAAKCAQEA3xYVXyqkUM86qHluIo2VFrdNfdIfT20ten3cik9Te1/J3lyI
bKJ0JjUceGjBYCWne7Yamqoz0J9e8i4hBIwNmij1YUA8NBqbinCBbYOefNBM2Xnc
N9kkbnPHYTFx6fWXt2WtPfavIG9WubVCtT2WYTHrDUzp9THTJa9As7uBBH8aziEY
g1ItUTGugvnLENPVBq/4ceijxp97SNriKK8c/0FtMoFFWddk5LHXyYZqC2VxZtZC
qGf9g0kgdRYeuxuFXH7ij18cgdOKldaSXJ5/ohAI4d+uaWg/jd15T9o/ebUCl1cw
Z009djW1T9FdNd3UtWtXsuAjNa0av2935rxY7QIDAQABAoIBAFz/H7mkVQs62AET
Xc4Zp2To1Oz2gwbhRGwju6QMnYh4zfZcLKLctf6XdV7cjIBAMiloKH8BJMh7J2Fd
yXXTzHfPSztXQ8GUtfJoJAw7Kf5t9xtRqXO+mWlR6nOh4RLexng1cpq6Exc6UrTn
0v8qxV2PKaVJwt3r/1FeVWKXb5kne/Ob4LS7c0xnVqc7TGPtxLdS5mU5jrt0ZdZl
tcHulLX24rmxKcNvge6r2EiYuet3vUi1uuLBQbWUJIFRwetDufG/2e2ihOuvCj5s
aYNlRAo0JUwWl7geicRUdxkCpV/Qld7aYldKIcsSzgl6GLpgNpHjUFBbJBGSng0S
vA4CMQECgYEA9tseJG2IuudqDHnpuUxtnlfDJTfYjtBQnYG1ojbd9FUiuihv/B2K
pJ5uuowpKSnXOwaHtzyQ6XJA7JChRcDmJ4rf6R/1B61+1XVasyi2WffTJHbKzUk+
hBAUoGtJIvrChMOnAlQzifP8+b7ec/ghKy87dNlQzQlSunyEW6lAW/UCgYEA51mQ
JOFsasSvioKilsJuFCcFInZCRTEMz7vK9HW2Qnv71b3xeB6aNoJA8zf1Gw9q5clN
Yu+8pkGNsWeone8izTzzpgZGJmM/vLjSdIgaJytStha2FwlQxUjggOjSy1zIdW+v
ROw6OaT2J5+Qw2ruWqSaw2fiDgOpBCJgfg95JhkCgYAy5SppyEuQfXXX7KrLkX5o
Tx/k5Ia5qylzz/Jq53ULkyH9z6iHCnAzUJbzz0INQpsliEsi9FHMT8oi/A7EGulY
7cEMh5I1awfjarawiYxPMFFQC0301U0WXVpjWLtTgu/n/47HZCTcJHnb5AZpUpdE
GBDiHowSOgHcgR+o5lRmoQKBgFaPi0BRW+hi6S9RC5aO7vL5WpF3X/pVjO6Y3Co1
dNlRXHuv0w5XnOmyOK0IDdxvG1cYx6yx+IrYUjTDjTJyjDnwiVVgWZT5Y5qwKIZT
ej2Xlx3sR3s9EAyQ5Pc2pdBTSemuvQxzuqFg2H0g1eBYPRCLMCDW2JzXv8B9QE9K
aNDZAoGAKbVakgVlwrGffJb5c6ZFF9W/WoJYXJRA2/tMqvOcaZwSNq0ySHI/uUyM
3aexymibv5cGsFhtcr8vqxlX0PZ+PF2SRe/L58PmByEXGmyv6UZ/fhOCh8ttmPzt
GIh5PiKOd7RR7ydFY22M2+uW99wMf5jSH6uX1DRATFLxJygbnHA=
-----END RSA PRIVATE KEY-----
Certificate:
    Data:
        Version: 3 (0x2)
        Serial Number: 15361901406880 (0xdf8b8ad2aa0)
    Signature Algorithm: sha1WithRSAEncryption
        Issuer:
            countryName               = NN
            organizationName          = Edel Curl Arctic Illudium Research Cloud
            commonName                = Northern Nowhere Trust Anchor
        Validity
            Not Before: Sep  5 23:29:01 2018 GMT
            Not After : Nov 22 23:29:01 2026 GMT
        Subject:
            countryName               = NN
            organizationName          = Edel Curl Arctic Illudium Research Cloud
            commonName                = localhost.nn
        Subject Public Key Info:
            Public Key Algorithm: rsaEncryption
                Public-Key: (2048 bit)
                Modulus:
                    00:df:16:15:5f:2a:a4:50:cf:3a:a8:79:6e:22:8d:
                    95:16:b7:4d:7d:d2:1f:4f:6d:2d:7a:7d:dc:8a:4f:
                    53:7b:5f:c9:de:5c:88:6c:a2:74:26:35:1c:78:68:
                    c1:60:25:a7:7b:b6:1a:9a:aa:33:d0:9f:5e:f2:2e:
                    21:04:8c:0d:9a:28:f5:61:40:3c:34:1a:9b:8a:70:
                    81:6d:83:9e:7c:d0:4c:d9:79:dc:37:d9:24:6e:73:
                    c7:61:31:71:e9:f5:97:b7:65:ad:3d:f6:af:20:6f:
                    56:b9:b5:42:b5:3d:96:61:31:eb:0d:4c:e9:f5:31:
                    d3:25:af:40:b3:bb:81:04:7f:1a:ce:21:18:83:52:
                    2d:51:31:ae:82:f9:cb:10:d3:d5:06:af:f8:71:e8:
                    a3:c6:9f:7b:48:da:e2:28:af:1c:ff:41:6d:32:81:
                    45:59:d7:64:e4:b1:d7:c9:86:6a:0b:65:71:66:d6:
                    42:a8:67:fd:83:49:20:75:16:1e:bb:1b:85:5c:7e:
                    e2:8f:5f:1c:81:d3:8a:95:d6:92:5c:9e:7f:a2:10:
                    08:e1:df:ae:69:68:3f:8d:dd:79:4f:da:3f:79:b5:
                    02:97:57:30:67:4d:3d:76:35:b5:4f:d1:5d:35:dd:
                    d4:b5:6b:57:b2:e0:23:35:ad:1a:bf:6f:77:e6:bc:
                    58:ed
                Exponent: 65537 (0x10001)
        X509v3 extensions:
            X509v3 Subject Alternative Name: 
                DNS:localhost1, DNS:localhost2, DNS:localhost
            X509v3 Key Usage: 
                Digital Signature, Key Encipherment, Key Agreement
            X509v3 Extended Key Usage: 
                TLS Web Server Authentication
            X509v3 Subject Key Identifier: 
                7C:9A:EA:9B:92:98:FB:77:25:89:8B:EF:D3:F4:88:34:AF:EA:24:CC
            X509v3 Authority Key Identifier: 
                keyid:12:CA:BA:4B:46:04:A7:75:8A:2C:E8:0E:54:94:BC:12:65:A6:7B:CE

            X509v3 Basic Constraints: 
                CA:FALSE
    Signature Algorithm: sha1WithRSAEncryption
         0f:97:60:47:2f:22:9f:d4:16:99:5a:ed:f4:b5:54:31:bf:9f:
         a1:bd:2d:8b:eb:c1:24:db:73:30:c7:46:d6:4c:c8:c6:38:0c:
         9a:e6:d6:5e:e8:a7:fb:9f:b6:44:66:73:43:86:46:10:c0:4c:
         40:4e:c1:d7:e4:41:0b:f0:61:f0:6f:45:8c:5a:14:40:42:97:
         c3:03:d0:ff:6d:4a:06:80:65:49:d4:2f:07:9d:86:59:6b:5b:
         9e:bc:0c:46:8a:62:da:c0:22:af:13:6c:0d:9d:54:5e:46:53:
         a5:aa:f2:80:44:c7:07:6e:f7:b0:4c:37:5c:31:08:a0:37:df:
         8a:35:92:3c:8c:91:2f:64:4f:d3:a0:eb:95:b3:4a:9e:f7:ac:
         25:ad:06:13:5c:dd:bd:d5:6b:74:8d:c7:c5:a6:b4:89:27:fd:
         b7:c2:24:a7:6a:b3:64:e6:e6:31:91:35:fc:0e:15:14:38:d6:
         39:b0:c4:b2:c1:c8:c7:ed:25:d7:b0:a9:b9:a0:70:33:42:90:
         86:33:2a:d8:d5:8a:02:e6:ab:8d:92:d6:ae:b4:1d:e9:6c:22:
         a5:2f:1a:48:48:2b:5c:b8:30:01:4b:27:1a:d3:cf:21:77:ab:
         9f:bc:55:34:2e:9f:03:2b:17:0b:c3:44:8e:a8:94:ae:92:a2:
         9a:33:c0:8e
-----BEGIN CERTIFICATE-----
MIID3jCCAsagAwIBAgIGDfi4rSqgMA0GCSqGSIb3DQEBBQUAMGgxCzAJBgNVBAYT
Ak5OMTEwLwYDVQQKDChFZGVsIEN1cmwgQXJjdGljIElsbHVkaXVtIFJlc2VhcmNo
IENsb3VkMSYwJAYDVQQDDB1Ob3J0aGVybiBOb3doZXJlIFRydXN0IEFuY2hvcjAe
Fw0xODA5MDUyMzI5MDFaFw0yNjExMjIyMzI5MDFaMFcxCzAJBgNVBAYTAk5OMTEw
LwYDVQQKDChFZGVsIEN1cmwgQXJjdGljIElsbHVkaXVtIFJlc2VhcmNoIENsb3Vk
MRUwEwYDVQQDDAxsb2NhbGhvc3Qubm4wggEiMA0GCSqGSIb3DQEBAQUAA4IBDwAw
ggEKAoIBAQDfFhVfKqRQzzqoeW4ijZUWt0190h9PbS16fdyKT1N7X8neXIhsonQm
NRx4aMFgJad7thqaqjPQn17yLiEEjA2aKPVhQDw0GpuKcIFtg5580EzZedw32SRu
c8dhMXHp9Ze3Za099q8gb1a5tUK1PZZhMesNTOn1MdMlr0Czu4EEfxrOIRiDUi1R
Ma6C+csQ09UGr/hx6KPGn3tI2uIorxz/QW0ygUVZ12TksdfJhmoLZXFm1kKoZ/2D
SSB1Fh67G4VcfuKPXxyB04qV1pJcnn+iEAjh365paD+N3XlP2j95tQKXVzBnTT12
NbVP0V013dS1a1ey4CM1rRq/b3fmvFjtAgMBAAGjgZ4wgZswLAYDVR0RBCUwI4IK
bG9jYWxob3N0MYIKbG9jYWxob3N0MoIJbG9jYWxob3N0MAsGA1UdDwQEAwIDqDAT
BgNVHSUEDDAKBggrBgEFBQcDATAdBgNVHQ4EFgQUfJrqm5KY+3cliYvv0/SINK/q
JMwwHwYDVR0jBBgwFoAUEsq6S0YEp3WKLOgOVJS8EmWme84wCQYDVR0TBAIwADAN
BgkqhkiG9w0BAQUFAAOCAQEAD5dgRy8in9QWmVrt9LVUMb+fob0ti+vBJNtzMMdG
1kzIxjgMmubWXuin+5+2RGZzQ4ZGEMBMQE7B1+RBC/Bh8G9FjFoUQEKXwwPQ/21K
BoBlSdQvB52GWWtbnrwMRopi2sAirxNsDZ1UXkZTparygETHB273sEw3XDEIoDff
ijWSPIyRL2RP06DrlbNKnvesJa0GE1zdvdVrdI3Hxaa0iSf9t8Ikp2qzZObmMZE1
/A4VFDjWObDEssHIx+0l17CpuaBwM0KQhjMq2NWKAuarjZLWrrQd6WwipS8aSEgr
XLgwAUsnGtPPIXern7xVNC6fAysXC8NEjqiUrpKimjPAjg==
-----END CERTIFICATE-----
