extensions = x509v3

[ x509v3 ]
subjectAltName          = DNS:localhost.nn
keyUsage                = keyEncipherment,digitalSignature,keyAgreement
extendedKeyUsage        = serverAuth
subjectKeyIdentifier    = hash
authorityKeyIdentifier  = keyid
basicConstraints        = CA:false
authorityInfoAccess     = @issuer_info
crlDistributionPoints   = @crl_info

[ crl_ext ]
authorityKeyIdentifier  = keyid:always
authorityInfoAccess     = @issuer_info

[ issuer_info ]
caIssuers;URI.0         = http://test.curl.se/ca/EdelCurlRoot.cer

[ crl_info ]
URI.0                   = http://test.curl.se/ca/EdelCurlRoot.crl

[ req ]
default_bits            = 1024
distinguished_name      = req_DN
default_md              = sha256
string_mask             = utf8only

[ req_DN ]
countryName             = "Country Name is Northern Nowhere"
countryName_value       = NN
organizationName        = "Organization Name"
organizationName_value  = Edel Curl Arctic Illudium Research Cloud
commonName              = "Common Name"
commonName_value        = localhost.nn
-----BEGIN PRIVATE KEY-----
MIIEvAIBADANBgkqhkiG9w0BAQEFAASCBKYwggSiAgEAAoIBAQCjmuQP4L2TqVqn
Xq2FXtbgmLTpIuBikMPZVzcWXVc9aMrizy9GZxoMrw6JhgEG39bJgBUKQ4VAP9ru
7ngJfJDkiWOSQAsiHOLTFqmTYuQEerCrJTp0AkTq8TGJlCl0oOK7rucP8Thqhx7d
W+akzJes0wGacSejIm3YSsdJXBauYacGOpC033Gvpf1RRnXNeOAMUplBT1YppqKj
3dl+KT5opa/ANLVzUhIEkAcb9YujcVbFlU5iGNTs6U6QG5EluzIV2xU4WRTJxcYK
CKot9WeqL+uXdIqLPl8JJ7C/s6OF6Xr1Odwdx/Q0c9jy7bDJHSqF7uL7UQle/7+8
ecNtMIm5AgMBAAECggEATTaCwAOfNRtOT4NdfX5fByzK5OSy5ZHQ/LgupX1z+OWG
KzkA5McwAiB0Se9WeLoXko3CYE+xibsZRn6BZGjHsTQuLA3Rs03StzEQ4yBe4MZO
rtcpGSsg/4jJilbEoeh0WYOYRWvg5lXS+UGwPsLYKpaDQTJ6NIHBOb1BBJxTkASA
ti7+uGn5DvRlOgFICBpNzRl83akeV8oLOJAqMZAlGI54jZa+cHkGfkJp+JyMbtjA
zML+oen1BYGHP++uM8fg4bn9bpixpg784qiJJsjzjQVofpZc1CaTJ32hzBCvEYrw
kQS5zhFsEP6fn278VWijFd2QOnxoyergumVOvBbNCQKBgQC+hB56kNGVuPcfSekW
xa5BytDlfAiAvo34N5VhHHNbe/RDtJ2w5z2ZqKg2AL0efWPb4kCMaiXZf9my0Kjm
iRv4LQA/hj1M7W33ubg93LZ9gnVdZSzuslR6CgXoIkmP4GZPF6n7+HxKStmeqBiE
TMc80OVE1ogXbPGcKOjxHvglawKBgQDb1tECQ9TFQtVveys69ycFSjQAFt569mQT
PBnVLtJ8RT3JX5rTKHLmYSl7kNylIzqO43+R8HZLGj09euRjTcKpatNkg7l74/PM
YUDQki8voWfXchpbN9pbRVhuw9TBNUvMiL9pEdoBl85MyDhydD/gC9809ljZyo+y
q8RCrP4yawKBgBXI+cs+IBkky21SgErQU/rF/Fkhc791CrrlcDlojXBanjXXw2hl
KNAXTxTNxNJluDN+ja8AvE9ApV4jKg0ihIY+bxbUfNH9HGQFYqIASQXVEyKY3Sh2
T96cosxGj27aVBibNh7P7TZ5lKTlx9fpB6dWo8DZXzp+hKo8q1ZXGjz9AoGAdNuy
zKZr8tO9Cv6JE1YPqvMvwyBk8S4KMmNPRBAYmTBhUKr+bOJieW4KlAGEGFAqr4vk
4xnUd8Wh6g1qXBMYt9/uMM8IiP+6N9k2j+g1JveAcHjZ48VD0CKDiJWWgYGoIjhK
rzprDU+5vPztbIG49oq5Ark0r8jKK+q8b8jvcrMCgYB/eTv2L5ReL99Hvrtm5oVE
BkkLS4dr8hnA7QJyo84yy8yq1w5KzOiMpnnK7v6N9NkGMn7Ia8HMqFyGuqaINzlY
NdYt+qoxLXdIDzKTSS91GAwfF25iyptx2DsdY2j2Smhp4put1/QygAbvlwXZy+kG
T8c+FOuI1h2Bg0bSSoTfIQ==
-----END PRIVATE KEY-----
Certificate:
    Data:
        Version: 3 (0x2)
        Serial Number: 16717980979553 (0xf3475515161)
        Signature Algorithm: sha256WithRSAEncryption
        Issuer:
            countryName               = NN
            organizationName          = Edel Curl Arctic Illudium Research Cloud
            commonName                = Northern Nowhere Trust Anchor
        Validity
            Not Before: Dec 23 12:21:37 2022 GMT
            Not After : Mar 11 12:21:37 2031 GMT
        Subject:
            countryName               = NN
            organizationName          = Edel Curl Arctic Illudium Research Cloud
            commonName                = localhost.nn
        Subject Public Key Info:
            Public Key Algorithm: rsaEncryption
                Public-Key: (2048 bit)
                Modulus:
                    00:a3:9a:e4:0f:e0:bd:93:a9:5a:a7:5e:ad:85:5e:
                    d6:e0:98:b4:e9:22:e0:62:90:c3:d9:57:37:16:5d:
                    57:3d:68:ca:e2:cf:2f:46:67:1a:0c:af:0e:89:86:
                    01:06:df:d6:c9:80:15:0a:43:85:40:3f:da:ee:ee:
                    78:09:7c:90:e4:89:63:92:40:0b:22:1c:e2:d3:16:
                    a9:93:62:e4:04:7a:b0:ab:25:3a:74:02:44:ea:f1:
                    31:89:94:29:74:a0:e2:bb:ae:e7:0f:f1:38:6a:87:
                    1e:dd:5b:e6:a4:cc:97:ac:d3:01:9a:71:27:a3:22:
                    6d:d8:4a:c7:49:5c:16:ae:61:a7:06:3a:90:b4:df:
                    71:af:a5:fd:51:46:75:cd:78:e0:0c:52:99:41:4f:
                    56:29:a6:a2:a3:dd:d9:7e:29:3e:68:a5:af:c0:34:
                    b5:73:52:12:04:90:07:1b:f5:8b:a3:71:56:c5:95:
                    4e:62:18:d4:ec:e9:4e:90:1b:91:25:bb:32:15:db:
                    15:38:59:14:c9:c5:c6:0a:08:aa:2d:f5:67:aa:2f:
                    eb:97:74:8a:8b:3e:5f:09:27:b0:bf:b3:a3:85:e9:
                    7a:f5:39:dc:1d:c7:f4:34:73:d8:f2:ed:b0:c9:1d:
                    2a:85:ee:e2:fb:51:09:5e:ff:bf:bc:79:c3:6d:30:
                    89:b9
                Exponent: 65537 (0x10001)
        X509v3 extensions:
            X509v3 Subject Alternative Name: 
                DNS:localhost.nn
            X509v3 Key Usage: 
                Digital Signature, Key Encipherment, Key Agreement
            X509v3 Extended Key Usage: 
                TLS Web Server Authentication
            X509v3 Subject Key Identifier: 
                85:A2:1D:76:BD:C6:8B:D6:D2:2D:05:77:24:EC:78:7B:70:71:77:C1
            X509v3 Authority Key Identifier: 
                87:CB:B1:33:2E:C1:67:7E:71:E3:E5:2B:4C:4D:A4:B3:6E:D2:5B:A9
            X509v3 Basic Constraints: 
                CA:FALSE
            Authority Information Access: 
                CA Issuers - URI:http://test.curl.se/ca/EdelCurlRoot.cer
            X509v3 CRL Distribution Points: 
                Full Name:
                  URI:http://test.curl.se/ca/EdelCurlRoot.crl
    Signature Algorithm: sha256WithRSAEncryption
    Signature Value:
        66:8f:f5:ea:6a:5d:58:b6:50:b0:5b:7b:1f:c1:54:d9:a3:bb:
        36:1b:eb:19:4a:0e:1c:26:43:32:84:de:cb:c9:eb:08:9a:ee:
        9d:d5:a6:62:3e:70:de:61:89:a9:d0:11:20:2a:a6:5c:19:ab:
        91:71:78:f6:5f:ab:e6:03:94:b3:94:42:7b:42:c6:37:f0:4c:
        b7:49:5d:90:c5:e3:24:2c:a0:ce:fe:be:71:11:3e:e6:0b:13:
        85:8d:36:e6:db:82:8b:fd:51:a3:3d:42:4c:0d:fd:cf:0b:d8:
        37:ab:f2:e5:53:15:3f:01:d7:a9:78:d5:99:fe:33:88:d7:c6:
        31:dd:bf:b1:d2:e6:31:17:6e:28:91:19:26:36:d7:bc:98:04:
        4c:30:cb:58:ec:b3:c9:1d:22:bf:28:bc:17:6d:2d:5d:36:c3:
        e5:12:80:5d:02:4c:61:48:95:a8:77:96:49:e2:17:87:fd:3b:
        cc:55:15:0d:b8:13:5e:31:97:05:78:78:7b:0d:8e:3d:ac:25:
        99:81:61:77:c4:a4:a2:25:f1:70:34:17:40:f7:cb:f3:fd:da:
        ad:bd:6d:f1:dc:85:0f:dd:4d:21:9e:19:6a:97:b3:43:44:71:
        db:74:3f:bf:8a:8d:06:54:48:fd:9e:88:e8:5d:d2:be:ee:b4:
        69:1b:63:11
-----BEGIN CERTIFICATE-----
MIIESjCCAzKgAwIBAgIGDzR1UVFhMA0GCSqGSIb3DQEBCwUAMGgxCzAJBgNVBAYT
Ak5OMTEwLwYDVQQKDChFZGVsIEN1cmwgQXJjdGljIElsbHVkaXVtIFJlc2VhcmNo
IENsb3VkMSYwJAYDVQQDDB1Ob3J0aGVybiBOb3doZXJlIFRydXN0IEFuY2hvcjAe
Fw0yMjEyMjMxMjIxMzdaFw0zMTAzMTExMjIxMzdaMFcxCzAJBgNVBAYTAk5OMTEw
LwYDVQQKDChFZGVsIEN1cmwgQXJjdGljIElsbHVkaXVtIFJlc2VhcmNoIENsb3Vk
MRUwEwYDVQQDDAxsb2NhbGhvc3Qubm4wggEiMA0GCSqGSIb3DQEBAQUAA4IBDwAw
ggEKAoIBAQCjmuQP4L2TqVqnXq2FXtbgmLTpIuBikMPZVzcWXVc9aMrizy9GZxoM
rw6JhgEG39bJgBUKQ4VAP9ru7ngJfJDkiWOSQAsiHOLTFqmTYuQEerCrJTp0AkTq
8TGJlCl0oOK7rucP8Thqhx7dW+akzJes0wGacSejIm3YSsdJXBauYacGOpC033Gv
pf1RRnXNeOAMUplBT1YppqKj3dl+KT5opa/ANLVzUhIEkAcb9YujcVbFlU5iGNTs
6U6QG5EluzIV2xU4WRTJxcYKCKot9WeqL+uXdIqLPl8JJ7C/s6OF6Xr1Odwdx/Q0
c9jy7bDJHSqF7uL7UQle/7+8ecNtMIm5AgMBAAGjggEJMIIBBTAXBgNVHREEEDAO
ggxsb2NhbGhvc3Qubm4wCwYDVR0PBAQDAgOoMBMGA1UdJQQMMAoGCCsGAQUFBwMB
MB0GA1UdDgQWBBSFoh12vcaL1tItBXck7Hh7cHF3wTAfBgNVHSMEGDAWgBSHy7Ez
LsFnfnHj5StMTaSzbtJbqTAJBgNVHRMEAjAAMEMGCCsGAQUFBwEBBDcwNTAzBggr
BgEFBQcwAoYnaHR0cDovL3Rlc3QuY3VybC5zZS9jYS9FZGVsQ3VybFJvb3QuY2Vy
MDgGA1UdHwQxMC8wLaAroCmGJ2h0dHA6Ly90ZXN0LmN1cmwuc2UvY2EvRWRlbEN1
cmxSb290LmNybDANBgkqhkiG9w0BAQsFAAOCAQEAZo/16mpdWLZQsFt7H8FU2aO7
NhvrGUoOHCZDMoTey8nrCJrundWmYj5w3mGJqdARICqmXBmrkXF49l+r5gOUs5RC
e0LGN/BMt0ldkMXjJCygzv6+cRE+5gsThY025tuCi/1Roz1CTA39zwvYN6vy5VMV
PwHXqXjVmf4ziNfGMd2/sdLmMRduKJEZJjbXvJgETDDLWOyzyR0ivyi8F20tXTbD
5RKAXQJMYUiVqHeWSeIXh/07zFUVDbgTXjGXBXh4ew2OPawlmYFhd8SkoiXxcDQX
QPfL8/3arb1t8dyFD91NIZ4ZapezQ0Rx23Q/v4qNBlRI/Z6I6F3Svu60aRtjEQ==
-----END CERTIFICATE-----
