extensions = x509v3
[ x509v3 ]
subjectAltName = DNS:localhost.nn
keyUsage	= keyEncipherment
extendedKeyUsage = serverAuth
subjectKeyIdentifier = hash
authorityKeyIdentifier = keyid
basicConstraints = critical,CA:false
[ req ]
default_bits                    = 1024
distinguished_name              = req_DN
default_md			= sha256
string_mask			= utf8only
[ req_DN ]
countryName                     = "Country Name is Northern Nowhere"
countryName_value            = NN
organizationName              = "Organization Name"
organizationName_value     = Edel Curl Arctic Illudium Research Cloud
commonName                      = "Common Name"
commonName_value              = localhost.nn 

[something]
# The key
# the certficate
# some dhparam
-----BEGIN RSA PRIVATE KEY-----
MIICXgIBAAKBgQDT1E7bY1w/OjpeOAmU5k1wnQ2vSeaCXQe39c2g369x8c+/1Zq9
r3x4XVU/FL27LA5zndaCmtXm9iFdCJKicV+AX1zO8MI3N3kPTT3U8oBtRzZF0dKL
ei4ScUtHhvWMma/nDs+1yU16dfeydAxB46u7LJ1vVAgTWjrvfCf3PwsLcQIDAQAB
AoGBALr1HQxAq8AaMj3KE5rZkOudkeBtxwaz+QYB6hTcl8pnc8aKTmKwKZlKNtzP
/4zdG3wriJII+lU4UsX7tP+uNGxKxALrDQRuBPyi8XQfUT1nJth6qkp8g3V/ixfE
Yah3od9dL3+xsOH28RKKUC5kjmnNupO9KQZ6/CyYfUHAEG+pAkEA+PP+7FIvpPQ+
7bbG4IIqn7QKVxGbtaFY8pdLnsUkrnIqwEIbZoU12iEKm5qMoXNv30GknXrvxU53
tdIZU5Z28wJBANnTTMb/jac+Q1SaqmWQnrpcmvuPZ/8xRM6xeSJh+MDpK768WpYe
nivHvinQjQZBQmNM3IPYbJ33nTAdJylmFQsCQQCn4crATPAKOheRsJdO4RijWAM9
EgfCJUtZVMPPDr0c0qqXujzGFwDo1y1TH5bEbZc8pATBmhzFHpRFzaf8oVQXAkAX
Hch5GefDhuUIVn2c17MwneFIrxhfSbA+qzDqyDDo8BXXYQ/P/KHWjZUNxPciYcyU
0zRXvaERRpTk5UMhrpavAkEAy4ZyhH1UViuWsmTQaRjc5mDs8aXkd2y85A7jnfWA
8r7CL+sOe4TU1/CVyJf2FJaqHfD/GG6fqqeFoHuaqwTyiw==
-----END RSA PRIVATE KEY-----
Certificate:
    Data:
        Version: 3 (0x2)
        Serial Number:
            0b:98:94:fb:78:5f
        Signature Algorithm: sha1WithRSAEncryption
        Issuer:
            countryName               = NN
            organizationName          = Edel Curl Arctic Illudium Research Cloud
            commonName                = Nothern Nowhere Trust Anchor
        Validity
            Not Before: May 27 21:37:24 2010 GMT
            Not After : Aug 13 21:37:24 2018 GMT
        Subject:
            countryName               = NN
            organizationName          = Edel Curl Arctic Illudium Research Cloud
            commonName                = localhost.nn
        Subject Public Key Info:
            Public Key Algorithm: rsaEncryption
                Public-Key: (1024 bit)
                Modulus:
                    00:d3:d4:4e:db:63:5c:3f:3a:3a:5e:38:09:94:e6:
                    4d:70:9d:0d:af:49:e6:82:5d:07:b7:f5:cd:a0:df:
                    af:71:f1:cf:bf:d5:9a:bd:af:7c:78:5d:55:3f:14:
                    bd:bb:2c:0e:73:9d:d6:82:9a:d5:e6:f6:21:5d:08:
                    92:a2:71:5f:80:5f:5c:ce:f0:c2:37:37:79:0f:4d:
                    3d:d4:f2:80:6d:47:36:45:d1:d2:8b:7a:2e:12:71:
                    4b:47:86:f5:8c:99:af:e7:0e:cf:b5:c9:4d:7a:75:
                    f7:b2:74:0c:41:e3:ab:bb:2c:9d:6f:54:08:13:5a:
                    3a:ef:7c:27:f7:3f:0b:0b:71
                Exponent: 65537 (0x10001)
        X509v3 extensions:
            X509v3 Subject Alternative Name: 
                DNS:localhost.nn
            X509v3 Key Usage: 
                Key Encipherment
            X509v3 Extended Key Usage: 
                TLS Web Server Authentication
            X509v3 Subject Key Identifier: 
                81:26:F9:75:CC:9C:2D:3C:36:64:68:41:F7:07:3C:66:86:E5:4A:C1
            X509v3 Authority Key Identifier: 
                keyid:AD:3E:E2:39:07:B8:5C:AA:26:90:94:4C:26:69:21:83:E2:4E:36:94

            X509v3 Basic Constraints: critical
                CA:FALSE
    Signature Algorithm: sha1WithRSAEncryption
        65:05:8c:48:14:58:8c:1a:d4:95:67:1c:29:52:ed:5a:6e:14:
        41:bc:2b:16:20:c4:89:3a:6e:cb:c1:ff:ab:61:79:5f:ce:27:
        93:3c:ff:29:7a:25:68:00:27:04:f3:68:17:30:f0:fd:ff:09:
        0e:15:2a:25:b1:45:18:93:ab:12:8e:0c:13:11:9a:b8:a4:75:
        d0:17:1b:ca:f2:66:6b:73:15:dd:8b:bb:34:d6:70:dc:34:1b:
        e7:7a:30:ea:50:50:2f:88:67:b3:f8:b3:55:62:44:7e:3e:df:
        59:4f:a8:57:83:40:9f:bf:52:bf:fd:2c:18:6e:bd:0c:41:b7:
        78:1c:9b:fa:c4:ff:c3:2b:46:a4:8f:0c:19:a7:3d:75:81:29:
        6b:cf:07:f0:1d:65:d4:0e:19:51:87:92:a8:3d:7e:80:04:84:
        ad:5e:4e:b6:ef:9a:02:c3:84:95:ec:c3:e8:a1:69:1f:42:cb:
        da:63:1a:35:6f:d0:ba:62:9e:73:36:63:58:0f:cc:25:c8:59:
        73:df:3b:c2:b9:5a:da:3d:e1:3f:0a:1f:0f:41:c4:88:2d:92:
        06:88:d4:54:81:e1:12:57:53:ab:6b:f8:c8:90:3e:30:4c:f5:
        72:cf:f0:d4:18:70:c1:78:85:30:9c:fe:94:f4:1b:c2:6c:14:
        49:7a:0e:27
-----BEGIN CERTIFICATE-----
MIIDRzCCAi+gAwIBAgIGC5iU+3hfMA0GCSqGSIb3DQEBBQUAMGcxCzAJBgNVBAYT
Ak5OMTEwLwYDVQQKDChFZGVsIEN1cmwgQXJjdGljIElsbHVkaXVtIFJlc2VhcmNo
IENsb3VkMSUwIwYDVQQDDBxOb3RoZXJuIE5vd2hlcmUgVHJ1c3QgQW5jaG9yMB4X
DTEwMDUyNzIxMzcyNFoXDTE4MDgxMzIxMzcyNFowVzELMAkGA1UEBhMCTk4xMTAv
BgNVBAoMKEVkZWwgQ3VybCBBcmN0aWMgSWxsdWRpdW0gUmVzZWFyY2ggQ2xvdWQx
FTATBgNVBAMMDGxvY2FsaG9zdC5ubjCBnzANBgkqhkiG9w0BAQEFAAOBjQAwgYkC
gYEA09RO22NcPzo6XjgJlOZNcJ0Nr0nmgl0Ht/XNoN+vcfHPv9Wava98eF1VPxS9
uywOc53WgprV5vYhXQiSonFfgF9czvDCNzd5D0091PKAbUc2RdHSi3ouEnFLR4b1
jJmv5w7PtclNenX3snQMQeOruyydb1QIE1o673wn9z8LC3ECAwEAAaOBjDCBiTAX
BgNVHREEEDAOggxsb2NhbGhvc3Qubm4wCwYDVR0PBAQDAgUgMBMGA1UdJQQMMAoG
CCsGAQUFBwMBMB0GA1UdDgQWBBSBJvl1zJwtPDZkaEH3BzxmhuVKwTAfBgNVHSME
GDAWgBStPuI5B7hcqiaQlEwmaSGD4k42lDAMBgNVHRMBAf8EAjAAMA0GCSqGSIb3
DQEBBQUAA4IBAQBlBYxIFFiMGtSVZxwpUu1abhRBvCsWIMSJOm7Lwf+rYXlfzieT
PP8peiVoACcE82gXMPD9/wkOFSolsUUYk6sSjgwTEZq4pHXQFxvK8mZrcxXdi7s0
1nDcNBvnejDqUFAviGez+LNVYkR+Pt9ZT6hXg0Cfv1K//SwYbr0MQbd4HJv6xP/D
K0akjwwZpz11gSlrzwfwHWXUDhlRh5KoPX6ABIStXk6275oCw4SV7MPooWkfQsva
Yxo1b9C6Yp5zNmNYD8wlyFlz3zvCuVraPeE/Ch8PQcSILZIGiNRUgeESV1Ora/jI
kD4wTPVyz/DUGHDBeIUwnP6U9BvCbBRJeg4n
-----END CERTIFICATE-----
-----BEGIN DH PARAMETERS-----
MIGHAoGBAPrtEVPhZfEczB9JnWXbln79YnTh/V6ehXMWe414wyn/VT1ow25sLEev
H2+eT84aDp5e+TfBSFjA6or96/lyQvsgAE+cE6f6uuw9ApVG2MK+BCn4snxHBb6G
LFQf+9qHZ4BEkpBL60p1fkGu8BM1wXGXEaeYhgGumNA9fm5YJrl7AgEC
-----END DH PARAMETERS-----
