Certificate:
    Data:
        Version: 3 (0x2)
        Serial Number:
            81:34:c8:2d:81:f0:53:f9
    Signature Algorithm: sha256WithRSAEncryption
        Issuer:
            countryName               = NN
            organizationName          = Edel Curl Arctic Illudium Research Cloud
            commonName                = Northern Nowhere Trust Anchor
        Validity
            Not Before: Mar  6 10:19:34 2025 GMT
            Not After : Dec 31 10:19:34 2025 GMT
        Subject:
            countryName               = NN
            organizationName          = Edel Curl Arctic Illudium Research Cloud
            commonName                = localhost
        Subject Public Key Info:
            Public Key Algorithm: rsaEncryption
                RSA Public-Key: (2048 bit)
                Modulus:
                    00:b1:9c:d3:ae:36:ed:40:f2:58:e4:66:ca:8b:7a:
                    45:c7:71:19:6f:95:3b:3b:88:39:27:89:33:6f:2a:
                    45:fe:bd:51:92:33:b9:75:c6:5a:50:25:4a:13:92:
                    e6:94:6c:57:ee:c6:81:bd:41:aa:9a:05:c0:a8:f1:
                    6b:7d:4e:0e:d3:e1:ba:ed:f7:4a:2a:29:fe:0e:56:
                    c6:10:68:d0:e0:13:2a:0e:ba:ab:5f:ae:5a:f0:0a:
                    91:62:aa:6e:8b:68:ea:66:96:d8:71:41:51:77:b1:
                    a3:d2:17:be:8e:46:04:53:b9:bb:d1:27:a9:0b:14:
                    e1:86:2c:ed:91:09:3a:f7:eb:a9:b8:d2:8f:ec:10:
                    c2:ad:63:5f:dd:fc:90:85:7c:c3:34:71:f9:7e:9e:
                    e7:98:fc:b7:36:37:09:83:33:05:23:df:ac:93:9c:
                    d4:58:d6:70:fb:8d:d6:5a:9a:3f:8f:85:89:cf:d9:
                    3b:97:4b:63:f5:2d:de:5e:3f:d6:d6:bf:44:37:99:
                    4e:e5:37:76:4a:21:0b:94:de:fb:20:ba:1a:15:b4:
                    39:bf:95:03:d7:a8:81:ea:69:94:08:1e:57:15:f5:
                    4b:43:06:70:9c:f9:92:aa:8c:9e:d9:62:fa:3b:46:
                    f6:a4:19:1d:70:bc:30:31:ec:4c:91:bc:63:b2:de:
                    a0:6f
                Exponent: 65537 (0x10001)
        X509v3 extensions:
            X509v3 Subject Alternative Name: 
                DNS:localhost
            X509v3 Key Usage: 
                Digital Signature, Key Encipherment, Key Agreement
            X509v3 Extended Key Usage: 
                TLS Web Server Authentication
            X509v3 Subject Key Identifier: 
                D4:F8:95:73:98:B5:14:F9:B7:0D:87:1B:38:38:5B:B3:84:9F:05:7A
            X509v3 Authority Key Identifier: 
                keyid:AF:44:46:FD:A5:B4:E6:91:5F:08:63:B6:50:55:F2:9B:39:03:FC:F0

            X509v3 Basic Constraints: 
                CA:FALSE
            Authority Information Access: 
                CA Issuers - URI:http://test.curl.se/ca/EdelCurlRoot.cer

            X509v3 CRL Distribution Points: 

                Full Name:
                  URI:http://test.curl.se/ca/EdelCurlRoot.crl

    Signature Algorithm: sha256WithRSAEncryption
         2a:44:f2:66:25:6d:26:40:dd:9e:0d:9b:77:10:53:ca:12:ca:
         b1:7b:f7:45:5d:e5:e4:8a:d8:8d:2e:93:de:3c:f6:07:a9:0c:
         da:1e:da:18:a9:b6:78:64:2b:1d:e1:27:3d:b1:55:04:fd:8b:
         8d:13:a3:1f:55:e8:3e:49:8d:a4:1f:c0:ee:a2:13:01:dc:c6:
         c3:be:7d:ec:b0:44:e6:21:07:33:f3:0d:74:91:cd:d1:6a:57:
         12:ce:a1:76:4d:2b:9c:6f:aa:9a:48:3e:15:a7:ce:a0:9c:47:
         fc:31:0f:9c:d8:9b:d0:10:b8:2c:6b:4c:7e:e8:b7:cf:31:48:
         0b:7b:09:23:72:7f:19:e0:ab:21:50:42:26:76:33:01:51:49:
         dc:ea:69:89:e3:09:70:a0:de:65:66:18:86:3f:88:0c:51:f8:
         7b:5f:72:a4:70:25:f2:72:24:f5:16:fc:49:1e:09:80:aa:fd:
         51:b2:ab:a8:63:54:dd:a0:fa:59:72:0f:32:55:38:42:84:c6:
         c1:8d:dc:90:0d:92:e7:e3:83:5d:52:14:cb:1b:62:f1:ea:c1:
         19:96:3e:e6:86:cb:13:7a:80:04:5d:7d:57:8e:99:89:6a:cd:
         8e:73:69:c9:d5:10:1e:f1:aa:8b:93:95:13:fb:52:b8:97:1e:
         61:68:65:64
-----BEGIN CERTIFICATE-----
MIIESTCCAzGgAwIBAgIJAIE0yC2B8FP5MA0GCSqGSIb3DQEBCwUAMGgxCzAJBgNV
BAYTAk5OMTEwLwYDVQQKDChFZGVsIEN1cmwgQXJjdGljIElsbHVkaXVtIFJlc2Vh
cmNoIENsb3VkMSYwJAYDVQQDDB1Ob3J0aGVybiBOb3doZXJlIFRydXN0IEFuY2hv
cjAeFw0yNTAzMDYxMDE5MzRaFw0yNTEyMzExMDE5MzRaMFQxCzAJBgNVBAYTAk5O
MTEwLwYDVQQKDChFZGVsIEN1cmwgQXJjdGljIElsbHVkaXVtIFJlc2VhcmNoIENs
b3VkMRIwEAYDVQQDDAlsb2NhbGhvc3QwggEiMA0GCSqGSIb3DQEBAQUAA4IBDwAw
ggEKAoIBAQCxnNOuNu1A8ljkZsqLekXHcRlvlTs7iDkniTNvKkX+vVGSM7l1xlpQ
JUoTkuaUbFfuxoG9QaqaBcCo8Wt9Tg7T4brt90oqKf4OVsYQaNDgEyoOuqtfrlrw
CpFiqm6LaOpmlthxQVF3saPSF76ORgRTubvRJ6kLFOGGLO2RCTr366m40o/sEMKt
Y1/d/JCFfMM0cfl+nueY/Lc2NwmDMwUj36yTnNRY1nD7jdZamj+PhYnP2TuXS2P1
Ld5eP9bWv0Q3mU7lN3ZKIQuU3vsguhoVtDm/lQPXqIHqaZQIHlcV9UtDBnCc+ZKq
jJ7ZYvo7RvakGR1wvDAx7EyRvGOy3qBvAgMBAAGjggEIMIIBBDAWBgNVHREEDzAN
ggtsb2NhbGhvc3QAaDALBgNVHQ8EBAMCA6gwEwYDVR0lBAwwCgYIKwYBBQUHAwEw
HQYDVR0OBBYEFNT4lXOYtRT5tw2HGzg4W7OEnwV6MB8GA1UdIwQYMBaAFK9ERv2l
tOaRXwhjtlBV8ps5A/zwMAkGA1UdEwQCMAAwQwYIKwYBBQUHAQEENzA1MDMGCCsG
AQUFBzAChidodHRwOi8vdGVzdC5jdXJsLnNlL2NhL0VkZWxDdXJsUm9vdC5jZXIw
OAYDVR0fBDEwLzAtoCugKYYnaHR0cDovL3Rlc3QuY3VybC5zZS9jYS9FZGVsQ3Vy
bFJvb3QuY3JsMA0GCSqGSIb3DQEBCwUAA4IBAQAqRPJmJW0mQN2eDZt3EFPKEsqx
e/dFXeXkitiNLpPePPYHqQzaHtoYqbZ4ZCsd4Sc9sVUE/YuNE6MfVeg+SY2kH8Du
ohMB3MbDvn3ssETmIQcz8w10kc3RalcSzqF2TSucb6qaSD4Vp86gnEf8MQ+c2JvQ
ELgsa0x+6LfPMUgLewkjcn8Z4KshUEImdjMBUUnc6mmJ4wlwoN5lZhiGP4gMUfh7
X3KkcCXyciT1FvxJHgmAqv1RsquoY1TdoPpZcg8yVThChMbBjdyQDZLn44NdUhTL
G2Lx6sEZlj7mhssTeoAEXX1XjpmJas2Oc2nJ1RAe8aqLk5UT+1K4lx5haGVk
-----END CERTIFICATE-----
