Certificate:
    Data:
        Version: 3 (0x2)
        Serial Number:
            81:34:c8:2d:81:f0:53:fa
    Signature Algorithm: sha256WithRSAEncryption
        Issuer:
            countryName               = NN
            organizationName          = Edel Curl Arctic Illudium Research Cloud
            commonName                = Northern Nowhere Trust Anchor
        Validity
            Not Before: Mar  6 10:19:35 2025 GMT
            Not After : Dec 31 10:19:35 2025 GMT
        Subject:
            countryName               = NN
            organizationName          = Edel Curl Arctic Illudium Research Cloud
            commonName                = localhost.nn
        Subject Public Key Info:
            Public Key Algorithm: rsaEncryption
                RSA Public-Key: (2048 bit)
                Modulus:
                    00:dd:19:9a:4a:8e:8e:30:1e:71:1e:c5:b4:f6:6b:
                    cc:d6:d2:c2:4e:03:31:de:72:4c:44:6d:a8:ad:0b:
                    93:34:31:be:4d:fc:8b:1c:db:05:60:0a:16:0e:dc:
                    5e:a1:75:cd:24:28:de:e4:c7:55:90:e8:ba:2f:a7:
                    c6:2d:2a:2f:08:e2:de:c4:60:ac:26:8b:bd:d3:23:
                    ed:fa:8c:f2:be:10:d5:a2:fb:c2:17:3f:cb:7d:08:
                    53:1c:0b:28:f6:33:dd:3e:0e:ec:54:d4:51:12:c2:
                    0e:8d:30:b8:db:b7:a2:ad:5b:39:ff:f8:2c:2d:f7:
                    5b:cc:35:50:32:15:99:34:58:37:46:51:60:98:17:
                    67:a3:e4:65:56:27:b2:c3:72:b7:3a:33:60:cf:d6:
                    94:86:aa:a8:32:ea:5b:a4:c1:b5:33:7a:fd:f0:64:
                    c3:34:2f:b3:5a:77:3b:05:96:2a:b6:5f:9c:71:bd:
                    0e:ca:8d:26:b4:ed:be:a0:90:d8:0f:43:4b:66:55:
                    cb:b8:25:96:81:5b:94:87:b7:2b:cf:6d:32:82:c2:
                    a3:29:fc:5a:9e:eb:ac:5d:82:2f:22:1c:c4:52:9a:
                    ee:55:b5:4f:be:4b:a6:ef:0c:4f:3c:64:1d:1b:f8:
                    27:8d:7a:49:c7:8b:f4:60:1b:cb:ad:91:0f:14:12:
                    32:a7
                Exponent: 65537 (0x10001)
        X509v3 extensions:
            X509v3 Subject Alternative Name: 
                DNS:localhost, DNS:localhost1, DNS:localhost2
            X509v3 Key Usage: 
                Digital Signature, Key Encipherment, Key Agreement
            X509v3 Extended Key Usage: 
                TLS Web Server Authentication
            X509v3 Subject Key Identifier: 
                04:3E:DC:3E:E3:67:68:96:E7:01:1C:13:FB:66:A1:ED:C2:04:B2:B5
            X509v3 Authority Key Identifier: 
                keyid:AF:44:46:FD:A5:B4:E6:91:5F:08:63:B6:50:55:F2:9B:39:03:FC:F0

            X509v3 Basic Constraints: 
                CA:FALSE
            Authority Information Access: 
                CA Issuers - URI:http://test.curl.se/ca/EdelCurlRoot.cer

            X509v3 CRL Distribution Points: 

                Full Name:
                  URI:http://test.curl.se/ca/EdelCurlRoot.crl

    Signature Algorithm: sha256WithRSAEncryption
         b2:ce:c0:77:a2:5c:07:b7:84:af:d2:37:4a:27:15:14:f1:3a:
         32:46:9f:46:69:48:ea:66:01:11:9f:4a:2d:30:c6:9e:b7:a4:
         1f:a9:7c:47:80:aa:75:12:a7:44:82:6a:23:e4:0e:79:67:5d:
         20:7b:30:04:cf:74:ef:6c:6d:e0:d8:9b:b9:2a:ce:1c:36:7d:
         40:07:be:b7:b7:e2:a1:99:19:bb:39:b7:83:75:b5:66:a6:73:
         79:c9:c3:fe:af:28:51:1c:59:3b:37:c8:8b:29:25:d2:99:b3:
         09:61:7e:a2:dd:11:2c:48:8c:29:a0:1d:9e:74:43:b8:1e:3f:
         b8:84:53:26:b4:d3:2c:18:87:f6:7d:eb:24:08:d6:91:53:e6:
         53:a1:a2:2a:4d:13:82:84:8b:f4:d2:22:d2:08:d8:10:dc:f9:
         38:b2:62:85:84:bc:99:2b:b5:27:f1:2d:bc:c9:21:75:fc:82:
         7d:4f:49:94:ed:b2:ef:6c:45:01:89:24:69:2f:42:2e:88:3b:
         ec:5c:46:ae:51:a5:d5:92:2b:80:bd:1a:d9:96:c5:5f:ef:6a:
         25:c3:7f:b3:68:02:53:f1:d2:50:3a:d2:86:34:88:7b:d3:78:
         a5:b3:8c:af:38:a7:02:1f:bb:fa:78:40:ac:76:a7:67:15:62:
         a9:66:d2:bb
-----BEGIN CERTIFICATE-----
MIIEYjCCA0qgAwIBAgIJAIE0yC2B8FP6MA0GCSqGSIb3DQEBCwUAMGgxCzAJBgNV
BAYTAk5OMTEwLwYDVQQKDChFZGVsIEN1cmwgQXJjdGljIElsbHVkaXVtIFJlc2Vh
cmNoIENsb3VkMSYwJAYDVQQDDB1Ob3J0aGVybiBOb3doZXJlIFRydXN0IEFuY2hv
cjAeFw0yNTAzMDYxMDE5MzVaFw0yNTEyMzExMDE5MzVaMFcxCzAJBgNVBAYTAk5O
MTEwLwYDVQQKDChFZGVsIEN1cmwgQXJjdGljIElsbHVkaXVtIFJlc2VhcmNoIENs
b3VkMRUwEwYDVQQDDAxsb2NhbGhvc3Qubm4wggEiMA0GCSqGSIb3DQEBAQUAA4IB
DwAwggEKAoIBAQDdGZpKjo4wHnEexbT2a8zW0sJOAzHeckxEbaitC5M0Mb5N/Isc
2wVgChYO3F6hdc0kKN7kx1WQ6Lovp8YtKi8I4t7EYKwmi73TI+36jPK+ENWi+8IX
P8t9CFMcCyj2M90+DuxU1FESwg6NMLjbt6KtWzn/+Cwt91vMNVAyFZk0WDdGUWCY
F2ej5GVWJ7LDcrc6M2DP1pSGqqgy6lukwbUzev3wZMM0L7NadzsFliq2X5xxvQ7K
jSa07b6gkNgPQ0tmVcu4JZaBW5SHtyvPbTKCwqMp/Fqe66xdgi8iHMRSmu5VtU++
S6bvDE88ZB0b+CeNeknHi/RgG8utkQ8UEjKnAgMBAAGjggEeMIIBGjAsBgNVHREE
JTAjgglsb2NhbGhvc3SCCmxvY2FsaG9zdDGCCmxvY2FsaG9zdDIwCwYDVR0PBAQD
AgOoMBMGA1UdJQQMMAoGCCsGAQUFBwMBMB0GA1UdDgQWBBQEPtw+42dolucBHBP7
ZqHtwgSytTAfBgNVHSMEGDAWgBSvREb9pbTmkV8IY7ZQVfKbOQP88DAJBgNVHRME
AjAAMEMGCCsGAQUFBwEBBDcwNTAzBggrBgEFBQcwAoYnaHR0cDovL3Rlc3QuY3Vy
bC5zZS9jYS9FZGVsQ3VybFJvb3QuY2VyMDgGA1UdHwQxMC8wLaAroCmGJ2h0dHA6
Ly90ZXN0LmN1cmwuc2UvY2EvRWRlbEN1cmxSb290LmNybDANBgkqhkiG9w0BAQsF
AAOCAQEAss7Ad6JcB7eEr9I3SicVFPE6MkafRmlI6mYBEZ9KLTDGnrekH6l8R4Cq
dRKnRIJqI+QOeWddIHswBM9072xt4NibuSrOHDZ9QAe+t7fioZkZuzm3g3W1ZqZz
ecnD/q8oURxZOzfIiykl0pmzCWF+ot0RLEiMKaAdnnRDuB4/uIRTJrTTLBiH9n3r
JAjWkVPmU6GiKk0TgoSL9NIi0gjYENz5OLJihYS8mSu1J/EtvMkhdfyCfU9JlO2y
72xFAYkkaS9CLog77FxGrlGl1ZIrgL0a2ZbFX+9qJcN/s2gCU/HSUDrShjSIe9N4
pbOMrzinAh+7+nhArHanZxViqWbSuw==
-----END CERTIFICATE-----
