Certificate:
    Data:
        Version: 3 (0x2)
        Serial Number: 16693795668370 (0xf2ed3c2c192)
    Signature Algorithm: sha256WithRSAEncryption
        Issuer:
            countryName               = NN
            organizationName          = Edel Curl Arctic Illudium Research Cloud
            commonName                = Northern Nowhere Trust Anchor
        Validity
            Not Before: Nov 25 12:32:46 2022 GMT
            Not After : Feb 11 12:32:46 2031 GMT
        Subject:
            countryName               = NN
            organizationName          = Edel Curl Arctic Illudium Research Cloud
            commonName                = localhost
        Subject Public Key Info:
            Public Key Algorithm: rsaEncryption
                Public-Key: (2048 bit)
                Modulus:
                    00:ea:d0:1c:06:61:72:c7:92:87:40:f3:c3:39:72:
                    25:af:ee:a1:56:8b:da:f0:e9:79:5c:5a:01:ac:2e:
                    0a:08:6f:f4:25:dc:fd:18:af:9c:c0:c9:7f:14:0f:
                    95:2f:ea:6d:87:c4:4c:04:0d:c5:9a:9a:a8:44:b8:
                    c6:01:95:a4:88:37:69:85:68:0b:77:d8:eb:cd:85:
                    2e:09:2c:cd:2d:31:1c:73:4f:bf:50:6c:dc:65:1e:
                    1f:9b:c0:b6:fd:8e:0f:8d:d0:58:a5:8c:82:9d:10:
                    07:04:a9:66:47:78:02:01:ed:68:f4:67:8c:16:d5:
                    a8:c0:26:eb:25:e6:d0:a1:fa:d0:eb:b9:30:ee:ef:
                    36:c1:5f:4f:29:48:66:66:ca:db:96:14:40:ca:d7:
                    9e:24:5b:c8:90:fc:df:3d:1b:14:c1:76:da:f6:61:
                    ca:8a:0e:c4:ff:cd:13:1f:b7:48:8f:ce:80:09:4c:
                    c7:71:e9:50:5c:3f:d3:62:25:db:93:e3:0b:c4:a3:
                    6a:f3:6c:42:0b:e5:0c:45:22:2f:93:19:52:40:1b:
                    12:d9:1f:26:2d:a0:39:db:15:de:46:82:02:1e:ad:
                    41:72:c3:8b:99:05:83:43:58:d2:65:3b:d2:8f:97:
                    7a:dc:40:de:e0:65:b4:97:19:11:59:94:f2:f4:6f:
                    cc:fb
                Exponent: 65537 (0x10001)
        X509v3 extensions:
            X509v3 Subject Alternative Name: 
                DNS:localhost
            X509v3 Key Usage: 
                Digital Signature, Key Encipherment, Key Agreement
            X509v3 Extended Key Usage: 
                TLS Web Server Authentication
            X509v3 Subject Key Identifier: 
                0C:BC:82:3B:78:FB:2E:45:68:C1:8C:F3:D3:90:EA:EB:B4:01:D1:4F
            X509v3 Authority Key Identifier: 
                keyid:52:40:EE:E1:4F:95:58:29:CA:84:67:8C:0F:8C:CC:FE:8F:A9:FA:A8

            X509v3 Basic Constraints: 
                CA:FALSE
            Authority Information Access: 
                CA Issuers - URI:http://test.curl.se/ca/EdelCurlRoot.cer

            X509v3 CRL Distribution Points: 

                Full Name:
                  URI:http://test.curl.se/ca/EdelCurlRoot.crl

    Signature Algorithm: sha256WithRSAEncryption
         a3:57:b0:64:17:36:45:e1:66:41:3b:73:67:31:03:e8:8e:a7:
         cc:eb:b3:0c:94:1f:65:37:e9:fd:f3:b7:a2:78:74:70:fd:16:
         22:5f:e9:01:25:67:6f:7a:6b:1d:b9:28:09:77:92:05:f0:dd:
         7e:55:b3:4a:5d:a9:31:e4:cd:2b:52:01:3d:d0:1b:b6:15:5d:
         e8:e4:97:ec:1c:56:6a:e8:4d:cf:32:a2:f4:b5:d7:af:1b:9a:
         14:26:3b:b8:02:39:d4:15:6e:60:09:b5:23:fd:e5:ec:f4:3a:
         17:08:15:de:16:79:07:dd:3e:ae:52:23:b4:71:39:1e:9f:3a:
         22:e7:09:10:28:41:01:50:18:3e:bd:88:d2:3b:9d:0a:4b:98:
         8e:dc:c3:ee:09:aa:76:7f:53:1e:f6:8b:56:72:64:60:02:29:
         ed:d8:d2:4e:75:76:f0:e6:40:4c:09:73:ea:a7:2e:3b:ba:35:
         4b:af:93:83:4b:99:10:b8:68:7d:79:3b:19:22:b7:36:e0:c3:
         5a:43:80:7d:e5:6d:6f:f8:78:4a:19:8b:60:26:2b:43:4c:96:
         f9:cf:42:b6:8d:01:ee:c7:b9:48:6d:64:e8:a7:1f:e1:d0:f5:
         f2:a2:6d:a0:c9:15:9d:12:17:1b:b1:8f:24:62:2f:41:46:51:
         8a:cf:8c:90
-----BEGIN CERTIFICATE-----
MIIERjCCAy6gAwIBAgIGDy7TwsGSMA0GCSqGSIb3DQEBCwUAMGgxCzAJBgNVBAYT
Ak5OMTEwLwYDVQQKDChFZGVsIEN1cmwgQXJjdGljIElsbHVkaXVtIFJlc2VhcmNo
IENsb3VkMSYwJAYDVQQDDB1Ob3J0aGVybiBOb3doZXJlIFRydXN0IEFuY2hvcjAe
Fw0yMjExMjUxMjMyNDZaFw0zMTAyMTExMjMyNDZaMFQxCzAJBgNVBAYTAk5OMTEw
LwYDVQQKDChFZGVsIEN1cmwgQXJjdGljIElsbHVkaXVtIFJlc2VhcmNoIENsb3Vk
MRIwEAYDVQQDDAlsb2NhbGhvc3QwggEiMA0GCSqGSIb3DQEBAQUAA4IBDwAwggEK
AoIBAQDq0BwGYXLHkodA88M5ciWv7qFWi9rw6XlcWgGsLgoIb/Ql3P0Yr5zAyX8U
D5Uv6m2HxEwEDcWamqhEuMYBlaSIN2mFaAt32OvNhS4JLM0tMRxzT79QbNxlHh+b
wLb9jg+N0FiljIKdEAcEqWZHeAIB7Wj0Z4wW1ajAJusl5tCh+tDruTDu7zbBX08p
SGZmytuWFEDK154kW8iQ/N89GxTBdtr2YcqKDsT/zRMft0iPzoAJTMdx6VBcP9Ni
JduT4wvEo2rzbEIL5QxFIi+TGVJAGxLZHyYtoDnbFd5GggIerUFyw4uZBYNDWNJl
O9KPl3rcQN7gZbSXGRFZlPL0b8z7AgMBAAGjggEIMIIBBDAWBgNVHREEDzANggts
b2NhbGhvc3QAaDALBgNVHQ8EBAMCA6gwEwYDVR0lBAwwCgYIKwYBBQUHAwEwHQYD
VR0OBBYEFAy8gjt4+y5FaMGM89OQ6uu0AdFPMB8GA1UdIwQYMBaAFFJA7uFPlVgp
yoRnjA+MzP6PqfqoMAkGA1UdEwQCMAAwQwYIKwYBBQUHAQEENzA1MDMGCCsGAQUF
BzAChidodHRwOi8vdGVzdC5jdXJsLnNlL2NhL0VkZWxDdXJsUm9vdC5jZXIwOAYD
VR0fBDEwLzAtoCugKYYnaHR0cDovL3Rlc3QuY3VybC5zZS9jYS9FZGVsQ3VybFJv
b3QuY3JsMA0GCSqGSIb3DQEBCwUAA4IBAQCjV7BkFzZF4WZBO3NnMQPojqfM67MM
lB9lN+n987eieHRw/RYiX+kBJWdvemsduSgJd5IF8N1+VbNKXakx5M0rUgE90Bu2
FV3o5JfsHFZq6E3PMqL0tdevG5oUJju4AjnUFW5gCbUj/eXs9DoXCBXeFnkH3T6u
UiO0cTkenzoi5wkQKEEBUBg+vYjSO50KS5iO3MPuCap2f1Me9otWcmRgAint2NJO
dXbw5kBMCXPqpy47ujVLr5ODS5kQuGh9eTsZIrc24MNaQ4B95W1v+HhKGYtgJitD
TJb5z0K2jQHux7lIbWTopx/h0PXyom2gyRWdEhcbsY8kYi9BRlGKz4yQ
-----END CERTIFICATE-----
