Certificate:
    Data:
        Version: 3 (0x2)
        Serial Number: 16717980989614 (0xf34755178ae)
        Signature Algorithm: sha256WithRSAEncryption
        Issuer:
            countryName               = NN
            organizationName          = Edel Curl Arctic Illudium Research Cloud
            commonName                = Northern Nowhere Trust Anchor
        Validity
            Not Before: Dec 23 12:21:38 2022 GMT
            Not After : Mar 11 12:21:38 2031 GMT
        Subject:
            countryName               = NN
            organizationName          = Edel Curl Arctic Illudium Research Cloud
            commonName                = localhost.nn
        Subject Public Key Info:
            Public Key Algorithm: rsaEncryption
                Public-Key: (2048 bit)
                Modulus:
                    00:c8:84:fe:69:64:33:c3:dc:b5:74:8a:c7:b2:bb:
                    d9:69:e2:a9:95:6d:5f:b7:25:e6:82:00:2b:f5:53:
                    21:e7:28:ae:66:b6:38:fd:15:b1:91:88:52:31:29:
                    bb:73:e2:e0:99:62:95:44:35:51:d7:54:c8:d2:6d:
                    25:3c:f0:2e:03:1b:a8:a1:25:e1:83:9a:5c:bd:65:
                    57:93:44:7e:a3:cc:dd:ac:59:69:60:01:e0:80:b9:
                    d0:c4:70:63:cf:17:a0:c6:13:0f:21:3b:c8:c1:46:
                    4e:18:fd:6a:36:76:24:4a:57:d8:73:2f:13:42:a0:
                    2e:90:1f:bf:84:9d:81:e7:bd:f8:75:53:f3:fa:52:
                    e1:f0:aa:f6:23:d7:0d:61:17:0c:e5:9a:ab:e2:d5:
                    e8:c3:c9:6b:2a:a6:da:f9:cb:f6:4d:1d:40:53:7e:
                    68:2f:51:9f:d3:17:95:34:21:32:0d:47:d6:a9:4d:
                    28:bb:e0:50:13:2f:5b:76:a1:90:5a:51:48:2f:ce:
                    db:d9:da:2e:d1:3a:0f:fb:80:61:24:0b:0b:79:b2:
                    45:cd:1d:2d:66:ee:4a:96:5d:08:b7:c4:80:95:2d:
                    4e:8e:ac:0e:15:fa:2c:06:0c:49:74:49:81:77:17:
                    a5:b2:01:de:aa:88:2b:9a:66:13:bb:06:b4:89:fb:
                    e4:91
                Exponent: 65537 (0x10001)
        X509v3 extensions:
            X509v3 Subject Alternative Name: 
                DNS:localhost1, DNS:localhost2, DNS:localhost
            X509v3 Key Usage: 
                Digital Signature, Key Encipherment, Key Agreement
            X509v3 Extended Key Usage: 
                TLS Web Server Authentication
            X509v3 Subject Key Identifier: 
                B3:77:93:C4:CA:9A:B3:62:CF:51:0D:17:1D:8E:87:F6:C2:3E:17:75
            X509v3 Authority Key Identifier: 
                87:CB:B1:33:2E:C1:67:7E:71:E3:E5:2B:4C:4D:A4:B3:6E:D2:5B:A9
            X509v3 Basic Constraints: 
                CA:FALSE
            Authority Information Access: 
                CA Issuers - URI:http://test.curl.se/ca/EdelCurlRoot.cer
            X509v3 CRL Distribution Points: 
                Full Name:
                  URI:http://test.curl.se/ca/EdelCurlRoot.crl
    Signature Algorithm: sha256WithRSAEncryption
    Signature Value:
        10:22:60:56:f6:14:b7:03:18:c4:01:ba:06:c7:65:49:98:d7:
        64:64:d4:2a:2b:19:16:d1:0e:e9:b0:04:86:01:fb:ae:37:e4:
        c9:19:37:d5:02:27:63:da:6f:de:a2:d0:23:36:7f:2f:3e:55:
        d2:b5:ef:23:5d:f7:ac:71:3f:95:77:bc:74:d3:1e:51:d9:7d:
        7e:0d:8e:03:f3:82:95:3e:88:dd:3c:ed:3a:aa:b4:e1:85:fb:
        d8:ea:3f:6a:7d:34:b7:b3:df:b1:fe:2b:ec:af:e0:1c:9c:ec:
        43:63:80:17:3a:32:ca:13:35:2d:c7:3d:3e:ac:aa:55:d6:1a:
        6d:3f:f0:ff:23:4f:e0:88:a1:42:d9:91:1c:a5:6b:87:14:1b:
        0b:4d:24:a8:33:36:7a:21:f7:e2:86:9c:65:36:f3:7c:0c:4d:
        be:f1:98:45:c3:27:e4:11:4a:7d:8a:e3:70:ae:fb:ac:9f:a6:
        f4:0d:dc:a7:83:39:50:c3:1e:1a:95:68:0d:b0:56:8f:64:d2:
        db:a1:a7:97:d1:2c:ea:7a:f9:9b:2f:5f:4d:ed:7c:f9:df:74:
        1a:81:73:79:f8:00:2a:78:18:23:72:7a:4b:66:6b:61:da:95:
        29:85:7c:4d:42:76:2e:43:70:6d:ac:0c:dc:98:d5:47:da:e1:
        54:0c:71:bf
-----BEGIN CERTIFICATE-----
MIIEXzCCA0egAwIBAgIGDzR1UXiuMA0GCSqGSIb3DQEBCwUAMGgxCzAJBgNVBAYT
Ak5OMTEwLwYDVQQKDChFZGVsIEN1cmwgQXJjdGljIElsbHVkaXVtIFJlc2VhcmNo
IENsb3VkMSYwJAYDVQQDDB1Ob3J0aGVybiBOb3doZXJlIFRydXN0IEFuY2hvcjAe
Fw0yMjEyMjMxMjIxMzhaFw0zMTAzMTExMjIxMzhaMFcxCzAJBgNVBAYTAk5OMTEw
LwYDVQQKDChFZGVsIEN1cmwgQXJjdGljIElsbHVkaXVtIFJlc2VhcmNoIENsb3Vk
MRUwEwYDVQQDDAxsb2NhbGhvc3Qubm4wggEiMA0GCSqGSIb3DQEBAQUAA4IBDwAw
ggEKAoIBAQDIhP5pZDPD3LV0iseyu9lp4qmVbV+3JeaCACv1UyHnKK5mtjj9FbGR
iFIxKbtz4uCZYpVENVHXVMjSbSU88C4DG6ihJeGDmly9ZVeTRH6jzN2sWWlgAeCA
udDEcGPPF6DGEw8hO8jBRk4Y/Wo2diRKV9hzLxNCoC6QH7+EnYHnvfh1U/P6UuHw
qvYj1w1hFwzlmqvi1ejDyWsqptr5y/ZNHUBTfmgvUZ/TF5U0ITINR9apTSi74FAT
L1t2oZBaUUgvztvZ2i7ROg/7gGEkCwt5skXNHS1m7kqWXQi3xICVLU6OrA4V+iwG
DEl0SYF3F6WyAd6qiCuaZhO7BrSJ++SRAgMBAAGjggEeMIIBGjAsBgNVHREEJTAj
ggpsb2NhbGhvc3Qxggpsb2NhbGhvc3Qygglsb2NhbGhvc3QwCwYDVR0PBAQDAgOo
MBMGA1UdJQQMMAoGCCsGAQUFBwMBMB0GA1UdDgQWBBSzd5PEypqzYs9RDRcdjof2
wj4XdTAfBgNVHSMEGDAWgBSHy7EzLsFnfnHj5StMTaSzbtJbqTAJBgNVHRMEAjAA
MEMGCCsGAQUFBwEBBDcwNTAzBggrBgEFBQcwAoYnaHR0cDovL3Rlc3QuY3VybC5z
ZS9jYS9FZGVsQ3VybFJvb3QuY2VyMDgGA1UdHwQxMC8wLaAroCmGJ2h0dHA6Ly90
ZXN0LmN1cmwuc2UvY2EvRWRlbEN1cmxSb290LmNybDANBgkqhkiG9w0BAQsFAAOC
AQEAECJgVvYUtwMYxAG6BsdlSZjXZGTUKisZFtEO6bAEhgH7rjfkyRk31QInY9pv
3qLQIzZ/Lz5V0rXvI133rHE/lXe8dNMeUdl9fg2OA/OClT6I3TztOqq04YX72Oo/
an00t7Pfsf4r7K/gHJzsQ2OAFzoyyhM1Lcc9PqyqVdYabT/w/yNP4IihQtmRHKVr
hxQbC00kqDM2eiH34oacZTbzfAxNvvGYRcMn5BFKfYrjcK77rJ+m9A3cp4M5UMMe
GpVoDbBWj2TS26Gnl9Es6nr5my9fTe18+d90GoFzefgAKngYI3J6S2ZrYdqVKYV8
TUJ2LkNwbawM3JjVR9rhVAxxvw==
-----END CERTIFICATE-----
