Certificate:
    Data:
        Version: 3 (0x2)
        Serial Number: 16693795668412 (0xf2ed3c2c1bc)
    Signature Algorithm: sha256WithRSAEncryption
        Issuer:
            countryName               = NN
            organizationName          = Edel Curl Arctic Illudium Research Cloud
            commonName                = Northern Nowhere Trust Anchor
        Validity
            Not Before: Nov 25 12:32:46 2022 GMT
            Not After : Feb 11 12:32:46 2031 GMT
        Subject:
            countryName               = NN
            organizationName          = Edel Curl Arctic Illudium Research Cloud
            commonName                = localhost.nn
        Subject Public Key Info:
            Public Key Algorithm: rsaEncryption
                Public-Key: (2048 bit)
                Modulus:
                    00:d3:a3:0a:9d:f6:3c:79:ce:37:e9:92:85:a0:4b:
                    6e:1e:68:99:2d:5d:84:47:33:f6:f7:5e:b5:64:6e:
                    a5:61:b0:b7:21:99:c2:41:09:f4:04:b1:38:5c:65:
                    fc:34:1d:e9:2c:7b:e1:b6:02:50:09:48:0e:b2:6e:
                    97:39:ae:51:93:de:cf:99:55:85:51:19:92:5a:3c:
                    8f:e7:03:7f:ba:b3:30:4e:fb:fc:40:3b:3a:04:9f:
                    e9:07:52:41:56:7b:07:c9:a7:b5:84:d8:b4:6b:44:
                    86:6a:34:bf:51:f1:d7:08:c7:36:66:f7:89:ac:a8:
                    f9:55:6f:29:fa:d6:8c:16:a3:f3:79:07:60:65:75:
                    84:2e:f0:cd:f2:1f:8f:40:fd:99:21:5a:f0:1c:b7:
                    53:8f:9d:79:6c:a4:23:46:90:52:ab:5a:78:03:2a:
                    16:51:9d:7f:a8:1d:52:bd:1a:db:a1:a7:9a:ed:3b:
                    b7:4f:b4:00:63:77:b4:35:e3:f7:4e:7e:02:14:db:
                    55:cb:96:32:4e:0e:b0:00:cc:e1:b5:83:53:96:4b:
                    8d:25:fb:21:1b:a8:32:60:f5:45:38:a8:99:18:7b:
                    3f:be:35:68:d3:f7:bd:49:2a:e4:23:40:ba:c2:d7:
                    3b:a0:98:65:d5:10:84:bb:93:74:82:67:82:a4:05:
                    64:d9
                Exponent: 65537 (0x10001)
        X509v3 extensions:
            X509v3 Subject Alternative Name: 
                DNS:localhost1, DNS:localhost2, DNS:localhost
            X509v3 Key Usage: 
                Digital Signature, Key Encipherment, Key Agreement
            X509v3 Extended Key Usage: 
                TLS Web Server Authentication
            X509v3 Subject Key Identifier: 
                D2:27:97:9D:58:B2:B5:4A:98:58:67:93:0E:AB:C4:CB:F2:58:1C:6A
            X509v3 Authority Key Identifier: 
                keyid:52:40:EE:E1:4F:95:58:29:CA:84:67:8C:0F:8C:CC:FE:8F:A9:FA:A8

            X509v3 Basic Constraints: 
                CA:FALSE
            Authority Information Access: 
                CA Issuers - URI:http://test.curl.se/ca/EdelCurlRoot.cer

            X509v3 CRL Distribution Points: 

                Full Name:
                  URI:http://test.curl.se/ca/EdelCurlRoot.crl

    Signature Algorithm: sha256WithRSAEncryption
         cb:49:88:ac:b3:08:6c:04:74:3d:a0:6c:86:73:bb:b3:6e:7e:
         bd:40:dd:ba:b7:ad:87:88:3f:c2:c5:61:d0:39:01:3c:1b:db:
         a5:04:6e:1d:ef:d3:af:cc:14:38:8e:2b:71:8d:2b:a1:11:fe:
         cf:6f:a3:1c:6e:1d:9e:e1:5f:db:b5:57:4c:04:8e:4c:e3:77:
         92:d7:5c:27:c8:0c:82:13:98:09:5b:aa:b5:71:fd:10:31:15:
         0c:9b:95:23:9d:3d:08:ab:7c:f9:ed:2a:d1:f5:9a:7a:90:a8:
         d7:db:47:a9:60:ba:e1:12:d4:11:0d:71:42:1b:37:0b:1e:10:
         3f:3c:59:ea:d2:46:cb:ad:f1:48:77:09:a5:18:eb:27:56:2f:
         e6:bf:34:9b:c1:16:10:d6:4b:ab:87:58:79:b4:a8:55:83:9b:
         c7:30:6c:a2:72:4c:c8:3a:d7:0b:5f:12:9f:c3:35:10:a3:30:
         02:91:37:eb:b1:b6:cb:c7:80:49:d1:06:92:f8:e7:fb:1b:22:
         12:73:c9:71:27:56:0e:8e:4e:c8:21:cb:33:65:77:f9:87:e5:
         e4:5e:70:32:d5:7e:b4:24:88:d9:ec:d3:63:95:ba:4b:69:06:
         28:3e:55:24:f2:c7:18:e8:cc:cb:1f:fd:79:33:bb:59:0b:2a:
         cc:52:c3:81
-----BEGIN CERTIFICATE-----
MIIEXzCCA0egAwIBAgIGDy7TwsG8MA0GCSqGSIb3DQEBCwUAMGgxCzAJBgNVBAYT
Ak5OMTEwLwYDVQQKDChFZGVsIEN1cmwgQXJjdGljIElsbHVkaXVtIFJlc2VhcmNo
IENsb3VkMSYwJAYDVQQDDB1Ob3J0aGVybiBOb3doZXJlIFRydXN0IEFuY2hvcjAe
Fw0yMjExMjUxMjMyNDZaFw0zMTAyMTExMjMyNDZaMFcxCzAJBgNVBAYTAk5OMTEw
LwYDVQQKDChFZGVsIEN1cmwgQXJjdGljIElsbHVkaXVtIFJlc2VhcmNoIENsb3Vk
MRUwEwYDVQQDDAxsb2NhbGhvc3Qubm4wggEiMA0GCSqGSIb3DQEBAQUAA4IBDwAw
ggEKAoIBAQDTowqd9jx5zjfpkoWgS24eaJktXYRHM/b3XrVkbqVhsLchmcJBCfQE
sThcZfw0Hekse+G2AlAJSA6ybpc5rlGT3s+ZVYVRGZJaPI/nA3+6szBO+/xAOzoE
n+kHUkFWewfJp7WE2LRrRIZqNL9R8dcIxzZm94msqPlVbyn61owWo/N5B2BldYQu
8M3yH49A/ZkhWvAct1OPnXlspCNGkFKrWngDKhZRnX+oHVK9Gtuhp5rtO7dPtABj
d7Q14/dOfgIU21XLljJODrAAzOG1g1OWS40l+yEbqDJg9UU4qJkYez++NWjT971J
KuQjQLrC1zugmGXVEIS7k3SCZ4KkBWTZAgMBAAGjggEeMIIBGjAsBgNVHREEJTAj
ggpsb2NhbGhvc3Qxggpsb2NhbGhvc3Qygglsb2NhbGhvc3QwCwYDVR0PBAQDAgOo
MBMGA1UdJQQMMAoGCCsGAQUFBwMBMB0GA1UdDgQWBBTSJ5edWLK1SphYZ5MOq8TL
8lgcajAfBgNVHSMEGDAWgBRSQO7hT5VYKcqEZ4wPjMz+j6n6qDAJBgNVHRMEAjAA
MEMGCCsGAQUFBwEBBDcwNTAzBggrBgEFBQcwAoYnaHR0cDovL3Rlc3QuY3VybC5z
ZS9jYS9FZGVsQ3VybFJvb3QuY2VyMDgGA1UdHwQxMC8wLaAroCmGJ2h0dHA6Ly90
ZXN0LmN1cmwuc2UvY2EvRWRlbEN1cmxSb290LmNybDANBgkqhkiG9w0BAQsFAAOC
AQEAy0mIrLMIbAR0PaBshnO7s25+vUDdureth4g/wsVh0DkBPBvbpQRuHe/Tr8wU
OI4rcY0roRH+z2+jHG4dnuFf27VXTASOTON3ktdcJ8gMghOYCVuqtXH9EDEVDJuV
I509CKt8+e0q0fWaepCo19tHqWC64RLUEQ1xQhs3Cx4QPzxZ6tJGy63xSHcJpRjr
J1Yv5r80m8EWENZLq4dYebSoVYObxzBsonJMyDrXC18Sn8M1EKMwApE367G2y8eA
SdEGkvjn+xsiEnPJcSdWDo5OyCHLM2V3+Yfl5F5wMtV+tCSI2ezTY5W6S2kGKD5V
JPLHGOjMyx/9eTO7WQsqzFLDgQ==
-----END CERTIFICATE-----
