Certificate:
    Data:
        Version: 3 (0x2)
        Serial Number: 16717980969532 (0xf3475512a3c)
        Signature Algorithm: sha256WithRSAEncryption
        Issuer:
            countryName               = NN
            organizationName          = Edel Curl Arctic Illudium Research Cloud
            commonName                = Northern Nowhere Trust Anchor
        Validity
            Not Before: Dec 23 12:21:36 2022 GMT
            Not After : Mar 11 12:21:36 2031 GMT
        Subject:
            countryName               = NN
            organizationName          = Edel Curl Arctic Illudium Research Cloud
            commonName                = localhost
        Subject Public Key Info:
            Public Key Algorithm: rsaEncryption
                Public-Key: (2048 bit)
                Modulus:
                    00:c6:b8:04:3d:d6:fa:31:a0:d7:f7:e9:88:4b:5a:
                    5e:6f:6f:db:f4:c9:4b:7e:6c:2a:cf:34:7b:2a:ba:
                    1a:71:ad:7f:78:6c:f7:1e:ca:07:d0:29:03:49:e4:
                    63:86:4c:f6:67:3f:bd:32:69:cb:b8:15:e7:0e:cf:
                    28:3d:9e:96:91:8e:4f:73:a9:27:77:4c:26:61:cd:
                    d6:e7:4e:3c:64:c3:13:ba:8e:ec:03:0f:bc:d4:83:
                    b3:94:f2:be:d0:18:30:c5:52:49:cb:9a:60:cf:f3:
                    b9:ca:2f:63:9d:34:ee:87:3a:58:e7:a1:99:dd:dc:
                    56:87:e1:a0:d7:6b:37:ae:bb:13:db:7d:fa:2a:3d:
                    9c:39:79:f6:01:a6:e3:3a:e7:18:14:cb:c7:57:b9:
                    83:d1:ba:b8:2c:5a:c4:97:2f:ee:8d:68:48:37:f8:
                    17:db:32:b9:ea:25:4f:28:57:01:39:13:dc:c0:f7:
                    d0:cc:65:f9:2b:b8:4c:a1:5b:11:ce:44:e2:28:b9:
                    63:62:fd:08:fa:b6:cd:49:d5:b9:fe:9e:68:9c:9a:
                    b5:1a:3e:cc:bf:0e:74:db:52:3f:25:30:cd:7d:02:
                    41:c7:c9:8a:58:12:35:25:21:95:c4:6b:c3:f5:79:
                    c2:00:cb:ef:7f:d7:9f:89:c9:ff:c0:b9:72:59:4c:
                    33:47
                Exponent: 65537 (0x10001)
        X509v3 extensions:
            X509v3 Subject Alternative Name: 
                DNS:localhost
            X509v3 Key Usage: 
                Digital Signature, Key Encipherment, Key Agreement
            X509v3 Extended Key Usage: 
                TLS Web Server Authentication
            X509v3 Subject Key Identifier: 
                4A:F1:79:1B:13:71:A4:0F:F9:06:CC:B6:2C:CD:24:46:DF:E6:08:2D
            X509v3 Authority Key Identifier: 
                87:CB:B1:33:2E:C1:67:7E:71:E3:E5:2B:4C:4D:A4:B3:6E:D2:5B:A9
            X509v3 Basic Constraints: 
                CA:FALSE
            Authority Information Access: 
                CA Issuers - URI:http://test.curl.se/ca/EdelCurlRoot.cer
            X509v3 CRL Distribution Points: 
                Full Name:
                  URI:http://test.curl.se/ca/EdelCurlRoot.crl
    Signature Algorithm: sha256WithRSAEncryption
    Signature Value:
        67:ef:ad:8f:fa:ee:f1:fd:33:67:62:06:5f:09:55:7c:cf:82:
        1a:e8:fc:f5:97:ba:63:bd:d0:a0:8b:85:2c:fc:f0:34:4a:97:
        b2:18:d7:63:34:63:f4:1f:50:c7:0e:13:d9:bc:3b:73:3d:41:
        93:16:b3:30:95:88:cd:75:c8:8c:58:4b:ab:96:e6:78:68:15:
        0f:84:e7:8e:17:94:1a:b3:f3:12:ab:26:fd:fa:73:31:33:36:
        85:83:2d:e3:3a:f2:a6:29:c6:37:30:3d:17:d2:39:31:d1:56:
        1b:8d:df:fb:07:ad:81:0b:91:e5:bd:7b:37:a0:a0:5a:2c:33:
        2b:8d:69:8b:d7:c1:45:61:85:ef:32:45:dd:00:a2:81:98:44:
        0d:eb:01:95:fc:ac:0f:b5:34:a4:5f:35:5c:68:63:50:5a:69:
        56:f3:99:c4:67:70:89:13:30:c0:64:ff:f1:a6:77:68:69:63:
        9e:6f:f8:3c:6f:cd:af:7f:de:0d:87:55:ae:39:b3:b2:f5:4f:
        47:79:1f:32:ee:ae:8f:32:dc:88:30:cd:38:6c:4b:28:55:c3:
        7d:74:6b:de:d0:49:c9:05:ea:62:71:a6:f8:1e:76:da:3c:a7:
        17:cd:1a:92:a3:c4:e8:85:d1:ad:34:0c:71:37:3f:6c:d3:7f:
        9a:d6:ca:de
-----BEGIN CERTIFICATE-----
MIIERDCCAyygAwIBAgIGDzR1USo8MA0GCSqGSIb3DQEBCwUAMGgxCzAJBgNVBAYT
Ak5OMTEwLwYDVQQKDChFZGVsIEN1cmwgQXJjdGljIElsbHVkaXVtIFJlc2VhcmNo
IENsb3VkMSYwJAYDVQQDDB1Ob3J0aGVybiBOb3doZXJlIFRydXN0IEFuY2hvcjAe
Fw0yMjEyMjMxMjIxMzZaFw0zMTAzMTExMjIxMzZaMFQxCzAJBgNVBAYTAk5OMTEw
LwYDVQQKDChFZGVsIEN1cmwgQXJjdGljIElsbHVkaXVtIFJlc2VhcmNoIENsb3Vk
MRIwEAYDVQQDDAlsb2NhbGhvc3QwggEiMA0GCSqGSIb3DQEBAQUAA4IBDwAwggEK
AoIBAQDGuAQ91voxoNf36YhLWl5vb9v0yUt+bCrPNHsquhpxrX94bPceygfQKQNJ
5GOGTPZnP70yacu4FecOzyg9npaRjk9zqSd3TCZhzdbnTjxkwxO6juwDD7zUg7OU
8r7QGDDFUknLmmDP87nKL2OdNO6HOljnoZnd3FaH4aDXazeuuxPbffoqPZw5efYB
puM65xgUy8dXuYPRurgsWsSXL+6NaEg3+BfbMrnqJU8oVwE5E9zA99DMZfkruEyh
WxHOROIouWNi/Qj6ts1J1bn+nmicmrUaPsy/DnTbUj8lMM19AkHHyYpYEjUlIZXE
a8P1ecIAy+9/15+Jyf/AuXJZTDNHAgMBAAGjggEGMIIBAjAUBgNVHREEDTALggls
b2NhbGhvc3QwCwYDVR0PBAQDAgOoMBMGA1UdJQQMMAoGCCsGAQUFBwMBMB0GA1Ud
DgQWBBRK8XkbE3GkD/kGzLYszSRG3+YILTAfBgNVHSMEGDAWgBSHy7EzLsFnfnHj
5StMTaSzbtJbqTAJBgNVHRMEAjAAMEMGCCsGAQUFBwEBBDcwNTAzBggrBgEFBQcw
AoYnaHR0cDovL3Rlc3QuY3VybC5zZS9jYS9FZGVsQ3VybFJvb3QuY2VyMDgGA1Ud
HwQxMC8wLaAroCmGJ2h0dHA6Ly90ZXN0LmN1cmwuc2UvY2EvRWRlbEN1cmxSb290
LmNybDANBgkqhkiG9w0BAQsFAAOCAQEAZ++tj/ru8f0zZ2IGXwlVfM+CGuj89Ze6
Y73QoIuFLPzwNEqXshjXYzRj9B9Qxw4T2bw7cz1BkxazMJWIzXXIjFhLq5bmeGgV
D4TnjheUGrPzEqsm/fpzMTM2hYMt4zrypinGNzA9F9I5MdFWG43f+wetgQuR5b17
N6CgWiwzK41pi9fBRWGF7zJF3QCigZhEDesBlfysD7U0pF81XGhjUFppVvOZxGdw
iRMwwGT/8aZ3aGljnm/4PG/Nr3/eDYdVrjmzsvVPR3kfMu6ujzLciDDNOGxLKFXD
fXRr3tBJyQXqYnGm+B522jynF80akqPE6IXRrTQMcTc/bNN/mtbK3g==
-----END CERTIFICATE-----
