extensions = x509v3

[ x509v3 ]
subjectAltName          = DNS:localhost1,DNS:localhost2,DNS:localhost
keyUsage                = keyEncipherment,digitalSignature,keyAgreement
extendedKeyUsage        = serverAuth
subjectKeyIdentifier    = hash
authorityKeyIdentifier  = keyid
basicConstraints        = CA:false
authorityInfoAccess     = @issuer_info
crlDistributionPoints   = @crl_info

[ crl_ext ]
authorityKeyIdentifier  = keyid:always
authorityInfoAccess     = @issuer_info

[ issuer_info ]
caIssuers;URI.0         = http://test.curl.se/ca/EdelCurlRoot.cer

[ crl_info ]
URI.0                   = http://test.curl.se/ca/EdelCurlRoot.crl

[ req ]
default_bits            = 1024
distinguished_name      = req_DN
default_md              = sha256
string_mask             = utf8only

[ req_DN ]
countryName             = "Country Name is Northern Nowhere"
countryName_value       = NN
organizationName        = "Organization Name"
organizationName_value  = Edel Curl Arctic Illudium Research Cloud
commonName              = "Common Name"
commonName_value        = localhost.nn
-----BEGIN RSA PRIVATE KEY-----
MIIEowIBAAKCAQEAqJmF2AYK27VEYtgVPuxvRIhqFRl728osJ6Mpq2qASJ3p9dNk
FhcZ7q7fd1KbK7ku14WQl5g6hCgv2yQWuyUixkREyhldxmBq/vM4j7FOJfceRWEF
MdrG9DJy7dZZ4ldA+CsZDO36GvqBbtUhBsPMoDoPotjo1Gp+FB80nWNZiZiGcfmI
CsaN//F13IaNB/oWQ2FnDwpTWnuNbFGiLpu5lYW4pD+jI9A2Cr50iLdmNw0FzaIL
PQNwye588qRvimAyC3YOKFHPCDDkrbJ2FvAvwJ9iQqK/2oM4sftM27Q/JbB8FdXh
o3Zz0KBYIGBBQ/2RvloYXGFg7xyCBgj3Q3MnNwIDAQABAoIBACg8OwzKpFy6bY+J
McjKc+NPCsHuSviwzsjGz3Lw/5xU0zivMftzl+S2Ju468H0GvH8CiPckhRJ05LbP
bf1LZ3kZYbE5TH/DEsW1FZJ1Jck5qCe2d57mLwSn5XWM6fZyDDctUdUcFcvKbIke
o7sRjwvNz111llra7yuuJshIpV2IfZdK3WG86kOTOvytGWnqzLrJlfhabFq7x22C
qHZsBsKWoG8Oh8c1OYDzQVJjjxFKbZ1bQaM4mi/fiP6O88PUSjJZhx0OuvbEFLKR
f5QT1Dek9V7tGIgzTwhikzODDwioJU3sxwwx9nIpn1X4j9MXn2OUW/QyUDM2GutU
yTjHNYECgYEA1oj8kgFa/pwAPbClv41Y44jJxLr9aye/iV3K8Cxfomi5XDHHVRqp
0e8ca1z46w4ZJhP7yMS2iGLYAJ/edYM4E32ySTYQO2Ph8kvI2uGdTME+IxlG7ZUz
Q+H1vDbLHl/7BUaytcAcHDDJnwVd/yWaAKL4iyClLr2jBQLXQ2PI6nkCgYEAyS+x
ERE9RURLVYFA8tCXqUZW7yl8hvOdu1xGLAhyWTHRKBtG04HM8W3KEXWElDjnUiz/
tmHfN54OnVpefbbiwAhmgvj4PxdtAfy4d15imG6qO4/67hNb4ozzb4vMJa/8NV4Y
vss+A8BP9G5K1q7U7PqVSHo5khYicIyPx0sqMy8CgYApYIJWJqzGLpBdVZSiPUDH
obpIl0gJQsFOXSim6egICuq1PWSUpW/bbaKtkmDv9Ogkz/Xf4xDRfT7r3+moAIbw
O24HcMXwrnMFqFg03w7Xnu29F0L2z6/zh8E9a9QBJ8HiYqBVLZg+V6qLYR2f+ECb
ntMRAlrZiPnIHaQm+zflAQKBgFDaS8zSIs+NjMEGOvXagrjSvelLwPHzQfakNMdJ
dbsG3EnD/IjP5283cjfmBKwU2lIaJ4JCfxS4/qKaSNM5BpOqTJhiOlIQtgxQZkoC
spkUEHHzgSLgwNKhVswDYL3cpf1Enak/wOJ9DSTslkME7Cl44znHdQ+SubCFrNqp
CIKdAoGBAKXURyXV4YREoNHQXH7ctIod0weSAbxg5AQ6DvBGguiroR+GBsJ9lqfR
u7HyhiyNO6HsFLe/oTUSOrx2kRT6opjIm5eweN0rdFbm03MZIe6wrO9AQbJcbFCj
A5Mk+qfUCB2eIiWiDViwv3uuX+Nq0CrGJTgWvcHvjlXu0XxXGWcX
-----END RSA PRIVATE KEY-----
Certificate:
    Data:
        Version: 3 (0x2)
        Serial Number:
            81:34:c8:2d:81:f0:53:fb
    Signature Algorithm: sha256WithRSAEncryption
        Issuer:
            countryName               = NN
            organizationName          = Edel Curl Arctic Illudium Research Cloud
            commonName                = Northern Nowhere Trust Anchor
        Validity
            Not Before: Mar  6 10:19:35 2025 GMT
            Not After : Dec 31 10:19:35 2025 GMT
        Subject:
            countryName               = NN
            organizationName          = Edel Curl Arctic Illudium Research Cloud
            commonName                = localhost.nn
        Subject Public Key Info:
            Public Key Algorithm: rsaEncryption
                RSA Public-Key: (2048 bit)
                Modulus:
                    00:a8:99:85:d8:06:0a:db:b5:44:62:d8:15:3e:ec:
                    6f:44:88:6a:15:19:7b:db:ca:2c:27:a3:29:ab:6a:
                    80:48:9d:e9:f5:d3:64:16:17:19:ee:ae:df:77:52:
                    9b:2b:b9:2e:d7:85:90:97:98:3a:84:28:2f:db:24:
                    16:bb:25:22:c6:44:44:ca:19:5d:c6:60:6a:fe:f3:
                    38:8f:b1:4e:25:f7:1e:45:61:05:31:da:c6:f4:32:
                    72:ed:d6:59:e2:57:40:f8:2b:19:0c:ed:fa:1a:fa:
                    81:6e:d5:21:06:c3:cc:a0:3a:0f:a2:d8:e8:d4:6a:
                    7e:14:1f:34:9d:63:59:89:98:86:71:f9:88:0a:c6:
                    8d:ff:f1:75:dc:86:8d:07:fa:16:43:61:67:0f:0a:
                    53:5a:7b:8d:6c:51:a2:2e:9b:b9:95:85:b8:a4:3f:
                    a3:23:d0:36:0a:be:74:88:b7:66:37:0d:05:cd:a2:
                    0b:3d:03:70:c9:ee:7c:f2:a4:6f:8a:60:32:0b:76:
                    0e:28:51:cf:08:30:e4:ad:b2:76:16:f0:2f:c0:9f:
                    62:42:a2:bf:da:83:38:b1:fb:4c:db:b4:3f:25:b0:
                    7c:15:d5:e1:a3:76:73:d0:a0:58:20:60:41:43:fd:
                    91:be:5a:18:5c:61:60:ef:1c:82:06:08:f7:43:73:
                    27:37
                Exponent: 65537 (0x10001)
        X509v3 extensions:
            X509v3 Subject Alternative Name: 
                DNS:localhost1, DNS:localhost2, DNS:localhost
            X509v3 Key Usage: 
                Digital Signature, Key Encipherment, Key Agreement
            X509v3 Extended Key Usage: 
                TLS Web Server Authentication
            X509v3 Subject Key Identifier: 
                7C:F6:B0:F1:E8:C6:D7:5E:C3:A7:41:3D:F0:83:FB:99:CD:15:3D:D5
            X509v3 Authority Key Identifier: 
                keyid:AF:44:46:FD:A5:B4:E6:91:5F:08:63:B6:50:55:F2:9B:39:03:FC:F0

            X509v3 Basic Constraints: 
                CA:FALSE
            Authority Information Access: 
                CA Issuers - URI:http://test.curl.se/ca/EdelCurlRoot.cer

            X509v3 CRL Distribution Points: 

                Full Name:
                  URI:http://test.curl.se/ca/EdelCurlRoot.crl

    Signature Algorithm: sha256WithRSAEncryption
         bf:d0:9c:c9:e6:39:01:f4:06:36:d2:59:f6:0f:19:da:48:50:
         e5:dc:33:ae:d8:8c:1d:6f:01:e1:27:b6:54:db:d4:d4:9a:c7:
         fb:18:01:d1:0e:9a:e0:8c:eb:06:69:ef:d9:88:dc:bd:6f:a9:
         ab:55:e2:00:fa:b8:e3:57:d2:56:8b:cc:d2:1d:f8:6a:50:d9:
         d6:cf:71:eb:92:3e:36:ee:d2:e2:00:e2:f0:68:92:5b:46:36:
         2a:71:b9:8f:83:94:31:42:ca:10:82:14:0a:b9:40:73:72:bc:
         e3:39:c3:ca:93:29:38:b3:a4:a4:26:b8:65:64:a5:49:5b:1e:
         5d:18:41:6c:20:ac:3c:d0:18:b0:61:3b:11:15:f5:19:b3:d8:
         b4:89:ae:e4:78:d6:47:e2:67:13:96:0a:4c:08:7b:d7:36:4a:
         df:58:31:80:30:ea:df:fb:18:b7:87:31:bf:ea:66:55:5f:09:
         97:2b:6a:bc:d7:a6:70:e6:0c:a0:10:22:27:b0:b4:84:67:93:
         0f:13:db:64:3d:e2:fb:c4:12:e6:00:e5:4f:ed:e3:a1:32:eb:
         b6:47:48:94:ac:19:2b:2d:24:3b:51:8a:57:33:52:03:0f:7f:
         d5:33:d0:26:b3:18:c7:aa:80:fa:c8:81:a0:a0:8e:7b:dc:7d:
         25:d0:f1:c2
-----BEGIN CERTIFICATE-----
MIIEYjCCA0qgAwIBAgIJAIE0yC2B8FP7MA0GCSqGSIb3DQEBCwUAMGgxCzAJBgNV
BAYTAk5OMTEwLwYDVQQKDChFZGVsIEN1cmwgQXJjdGljIElsbHVkaXVtIFJlc2Vh
cmNoIENsb3VkMSYwJAYDVQQDDB1Ob3J0aGVybiBOb3doZXJlIFRydXN0IEFuY2hv
cjAeFw0yNTAzMDYxMDE5MzVaFw0yNTEyMzExMDE5MzVaMFcxCzAJBgNVBAYTAk5O
MTEwLwYDVQQKDChFZGVsIEN1cmwgQXJjdGljIElsbHVkaXVtIFJlc2VhcmNoIENs
b3VkMRUwEwYDVQQDDAxsb2NhbGhvc3Qubm4wggEiMA0GCSqGSIb3DQEBAQUAA4IB
DwAwggEKAoIBAQComYXYBgrbtURi2BU+7G9EiGoVGXvbyiwnoymraoBInen102QW
Fxnurt93UpsruS7XhZCXmDqEKC/bJBa7JSLGRETKGV3GYGr+8ziPsU4l9x5FYQUx
2sb0MnLt1lniV0D4KxkM7foa+oFu1SEGw8ygOg+i2OjUan4UHzSdY1mJmIZx+YgK
xo3/8XXcho0H+hZDYWcPClNae41sUaIum7mVhbikP6Mj0DYKvnSIt2Y3DQXNogs9
A3DJ7nzypG+KYDILdg4oUc8IMOStsnYW8C/An2JCor/agzix+0zbtD8lsHwV1eGj
dnPQoFggYEFD/ZG+WhhcYWDvHIIGCPdDcyc3AgMBAAGjggEeMIIBGjAsBgNVHREE
JTAjggpsb2NhbGhvc3Qxggpsb2NhbGhvc3Qygglsb2NhbGhvc3QwCwYDVR0PBAQD
AgOoMBMGA1UdJQQMMAoGCCsGAQUFBwMBMB0GA1UdDgQWBBR89rDx6MbXXsOnQT3w
g/uZzRU91TAfBgNVHSMEGDAWgBSvREb9pbTmkV8IY7ZQVfKbOQP88DAJBgNVHRME
AjAAMEMGCCsGAQUFBwEBBDcwNTAzBggrBgEFBQcwAoYnaHR0cDovL3Rlc3QuY3Vy
bC5zZS9jYS9FZGVsQ3VybFJvb3QuY2VyMDgGA1UdHwQxMC8wLaAroCmGJ2h0dHA6
Ly90ZXN0LmN1cmwuc2UvY2EvRWRlbEN1cmxSb290LmNybDANBgkqhkiG9w0BAQsF
AAOCAQEAv9CcyeY5AfQGNtJZ9g8Z2khQ5dwzrtiMHW8B4Se2VNvU1JrH+xgB0Q6a
4IzrBmnv2YjcvW+pq1XiAPq441fSVovM0h34alDZ1s9x65I+Nu7S4gDi8GiSW0Y2
KnG5j4OUMULKEIIUCrlAc3K84znDypMpOLOkpCa4ZWSlSVseXRhBbCCsPNAYsGE7
ERX1GbPYtImu5HjWR+JnE5YKTAh71zZK31gxgDDq3/sYt4cxv+pmVV8JlytqvNem
cOYMoBAiJ7C0hGeTDxPbZD3i+8QS5gDlT+3joTLrtkdIlKwZKy0kO1GKVzNSAw9/
1TPQJrMYx6qA+siBoKCOe9x9JdDxwg==
-----END CERTIFICATE-----
