extensions = x509v3

[ x509v3 ]
subjectAltName          = DNS:localhost.nn
keyUsage                = keyEncipherment,digitalSignature,keyAgreement
extendedKeyUsage        = serverAuth
subjectKeyIdentifier    = hash
authorityKeyIdentifier  = keyid
basicConstraints        = CA:false
authorityInfoAccess     = @issuer_info
crlDistributionPoints   = @crl_info

[ crl_ext ]
authorityKeyIdentifier  = keyid:always
authorityInfoAccess     = @issuer_info

[ issuer_info ]
caIssuers;URI.0         = http://test.curl.se/ca/EdelCurlRoot.cer

[ crl_info ]
URI.0                   = http://test.curl.se/ca/EdelCurlRoot.crl

[ req ]
default_bits            = 1024
distinguished_name      = req_DN
default_md              = sha256
string_mask             = utf8only

[ req_DN ]
countryName             = "Country Name is Northern Nowhere"
countryName_value       = NN
organizationName        = "Organization Name"
organizationName_value  = Edel Curl Arctic Illudium Research Cloud
commonName              = "Common Name"
commonName_value        = localhost.nn
-----BEGIN RSA PRIVATE KEY-----
MIIEowIBAAKCAQEAyl84z/9LwPwGU0YLE4D9NWO8CLmwc9Vsxhdw9jN8tjTNWWGE
wTrZ1y2RIxmCCQE0UGC5XL/sR/Gv6NUuOheRQZ07xg5QKFdfWKs6K3PkozGX8+NL
Yn+gs823gS+XfGdtFipauRFQNV49fedEaTyPJvChmTydIIu1LOC3gpCHXUV7SL9e
nYEHSnBH6v7ZhEFNB6aDa2wU2YUaE/ReOwFLiTY1FxrWWozzVDeCx6QPQwrfkX+x
eXAxysCbPR1ya4uSrW/wKTs4sKnlLIWrvk28RRSgfLk9mMJJ5rzh717VcT/lR8PI
ywy0WE7mhikJwIvvScUcueq/NOOxnghcGeDeXwIDAQABAoIBACMyKGlUV1J7Aoad
GfQMbP1KGTvTP7MFnWNeVFEdZ0UxLb2rzjDlEVnxHNrj5s+2G+kWyWYuIuPoTtXJ
rb6AtsyYkfrCJoK9n2GGdhl0kIEpcOoDz+qTk9lxn8aiBlCmlDxUpW6majK97yfk
futmkucM1q4V8qXkZmAlvQTCKii4S01B/yvaarI0dZKFTECDiVv3f5VMWNeLxWRq
kdwnYbxfiERC5fQ183ykc6P+98aS6qbHR9gl+LCrw6IFK33/jgRcfvFHnvSedmt1
fegxjivH0sp1WGmF6o1aQItZ5gSJ0f3llO9BwRNph42DDcShLSSkyHSE9aQsqUnt
n7HcJHECgYEA+ofFUpzB5IKgvFEZO8fDkjRCLSJDSFkpgbI4F7UVW9Hutpu+KHqy
H9RRXBhelHsOXF9SldZ4P1qsgnCcj7D+Wc/NcLN1bdDMy0UzEDpfyYVtlNQ+FUU+
6MCuypWPUY3inD+LPSQhiY+p9mdhKIUXdcej+RZjlCetg4b27FZ0y8MCgYEAzspK
fUAA4vrb50Ld9l41XcMoEHZCwnESODQY8IeZx6cUXE1h7hXZ2D9wojR9rgue3xCI
U6o0b4apw5cTSppSBFshUrl/5DQ8n394IUtul2Vc9ZiTh5UW2caU5iCShxzSJ9er
+L6H+dbqUWTXtTe0lLBmHKWbg23T/yKjE4JKpTUCgYAtvih7IwAL9wXeHHic/6Zn
xX7nur/KL+1yLtYrDfcuYrBRSzJ3NZ/cS+nnBNQQDD/dAdKUZSpjduzUjDcpzUlD
oLuD/mBMgrlBzAq8xcvDgcc2S2Jig9guqy++8XvPijZ8DOYhbb1p3n9L7ChDO7nC
2YbI7huUa4I056miEU8V/QKBgBUC4uy1CyIFAUEPP0RgMCX1xWVezsu493P0fzA5
ZvutU1lJl5C8caUSVRx2HusHTT43DNMLcUZ/tVIlUJV89qZwqAMizAbg8+P07Lzd
UEBb0UU3Go5lLKw2DD0RxDGsUQIxXMzqdyCAoNBiYbSNE3EkN0vj29hP2YGMAGvk
CjedAoGBAODYJVf2ThBMODRtwevq4lMMwD6JjcSdczjhavGYft1CEhSB2BlUf5Ij
WYwEI12thok1DsgPT6DyghWA3MsgNJfdgeKXtRe6P8iyiTbBK5yeFKYGUyN2+4Ja
/ucy5fFB0E86vDfbdHs6VLalRPE///rkcAJsSphHiMZeuCIPUuEQ
-----END RSA PRIVATE KEY-----
Certificate:
    Data:
        Version: 3 (0x2)
        Serial Number:
            81:34:c8:2d:81:f0:53:f8
    Signature Algorithm: sha256WithRSAEncryption
        Issuer:
            countryName               = NN
            organizationName          = Edel Curl Arctic Illudium Research Cloud
            commonName                = Northern Nowhere Trust Anchor
        Validity
            Not Before: Mar  6 10:19:34 2025 GMT
            Not After : Dec 31 10:19:34 2025 GMT
        Subject:
            countryName               = NN
            organizationName          = Edel Curl Arctic Illudium Research Cloud
            commonName                = localhost.nn
        Subject Public Key Info:
            Public Key Algorithm: rsaEncryption
                RSA Public-Key: (2048 bit)
                Modulus:
                    00:ca:5f:38:cf:ff:4b:c0:fc:06:53:46:0b:13:80:
                    fd:35:63:bc:08:b9:b0:73:d5:6c:c6:17:70:f6:33:
                    7c:b6:34:cd:59:61:84:c1:3a:d9:d7:2d:91:23:19:
                    82:09:01:34:50:60:b9:5c:bf:ec:47:f1:af:e8:d5:
                    2e:3a:17:91:41:9d:3b:c6:0e:50:28:57:5f:58:ab:
                    3a:2b:73:e4:a3:31:97:f3:e3:4b:62:7f:a0:b3:cd:
                    b7:81:2f:97:7c:67:6d:16:2a:5a:b9:11:50:35:5e:
                    3d:7d:e7:44:69:3c:8f:26:f0:a1:99:3c:9d:20:8b:
                    b5:2c:e0:b7:82:90:87:5d:45:7b:48:bf:5e:9d:81:
                    07:4a:70:47:ea:fe:d9:84:41:4d:07:a6:83:6b:6c:
                    14:d9:85:1a:13:f4:5e:3b:01:4b:89:36:35:17:1a:
                    d6:5a:8c:f3:54:37:82:c7:a4:0f:43:0a:df:91:7f:
                    b1:79:70:31:ca:c0:9b:3d:1d:72:6b:8b:92:ad:6f:
                    f0:29:3b:38:b0:a9:e5:2c:85:ab:be:4d:bc:45:14:
                    a0:7c:b9:3d:98:c2:49:e6:bc:e1:ef:5e:d5:71:3f:
                    e5:47:c3:c8:cb:0c:b4:58:4e:e6:86:29:09:c0:8b:
                    ef:49:c5:1c:b9:ea:bf:34:e3:b1:9e:08:5c:19:e0:
                    de:5f
                Exponent: 65537 (0x10001)
        X509v3 extensions:
            X509v3 Subject Alternative Name: 
                DNS:localhost.nn
            X509v3 Key Usage: 
                Digital Signature, Key Encipherment, Key Agreement
            X509v3 Extended Key Usage: 
                TLS Web Server Authentication
            X509v3 Subject Key Identifier: 
                09:77:77:B1:AF:FC:F0:B9:28:80:A2:C8:78:24:0D:D2:C9:F6:8C:68
            X509v3 Authority Key Identifier: 
                keyid:AF:44:46:FD:A5:B4:E6:91:5F:08:63:B6:50:55:F2:9B:39:03:FC:F0

            X509v3 Basic Constraints: 
                CA:FALSE
            Authority Information Access: 
                CA Issuers - URI:http://test.curl.se/ca/EdelCurlRoot.cer

            X509v3 CRL Distribution Points: 

                Full Name:
                  URI:http://test.curl.se/ca/EdelCurlRoot.crl

    Signature Algorithm: sha256WithRSAEncryption
         0c:81:fe:f7:b9:c4:c7:bd:d3:1b:05:90:b6:b6:79:f1:43:5f:
         e7:05:30:f9:62:0a:00:8f:a2:64:38:8e:c9:95:1c:96:0e:6b:
         c8:37:fa:50:3e:06:d5:d5:74:cb:0a:e7:f1:db:4b:12:e3:57:
         95:1e:7e:83:a3:a2:ff:32:1c:1e:1e:b3:3b:d4:7c:95:9e:5f:
         76:b8:12:03:c4:8e:ca:9d:8b:7a:50:63:2a:99:3a:d9:cc:f3:
         3b:67:61:6f:fd:6f:36:6f:03:53:72:06:75:ab:a5:91:bd:37:
         54:b7:d5:d8:96:fc:5a:2a:ce:08:1e:bb:60:aa:b3:da:7f:d5:
         e4:2f:10:80:54:77:42:37:15:38:ec:fa:65:a2:f5:f6:90:06:
         c2:5c:4c:bb:83:18:e8:09:96:72:0c:a8:46:d1:e5:aa:fd:02:
         f5:a3:b9:30:ed:f7:d4:24:71:36:9f:94:3c:ea:3f:e4:7c:af:
         3c:6c:2b:ea:97:a3:6c:83:70:1a:5b:28:5a:71:1d:29:5b:a0:
         b1:31:7a:1e:9a:4c:64:60:fb:4a:75:e4:b9:77:73:6d:cd:eb:
         87:f0:19:51:87:ad:82:b2:35:55:bd:ec:da:a2:7b:ea:d6:d3:
         51:c5:2c:8f:b7:9c:27:b7:85:84:3a:80:d6:8b:11:6e:26:76:
         e7:c0:0b:5d
-----BEGIN CERTIFICATE-----
MIIETTCCAzWgAwIBAgIJAIE0yC2B8FP4MA0GCSqGSIb3DQEBCwUAMGgxCzAJBgNV
BAYTAk5OMTEwLwYDVQQKDChFZGVsIEN1cmwgQXJjdGljIElsbHVkaXVtIFJlc2Vh
cmNoIENsb3VkMSYwJAYDVQQDDB1Ob3J0aGVybiBOb3doZXJlIFRydXN0IEFuY2hv
cjAeFw0yNTAzMDYxMDE5MzRaFw0yNTEyMzExMDE5MzRaMFcxCzAJBgNVBAYTAk5O
MTEwLwYDVQQKDChFZGVsIEN1cmwgQXJjdGljIElsbHVkaXVtIFJlc2VhcmNoIENs
b3VkMRUwEwYDVQQDDAxsb2NhbGhvc3Qubm4wggEiMA0GCSqGSIb3DQEBAQUAA4IB
DwAwggEKAoIBAQDKXzjP/0vA/AZTRgsTgP01Y7wIubBz1WzGF3D2M3y2NM1ZYYTB
OtnXLZEjGYIJATRQYLlcv+xH8a/o1S46F5FBnTvGDlAoV19Yqzorc+SjMZfz40ti
f6CzzbeBL5d8Z20WKlq5EVA1Xj1950RpPI8m8KGZPJ0gi7Us4LeCkIddRXtIv16d
gQdKcEfq/tmEQU0HpoNrbBTZhRoT9F47AUuJNjUXGtZajPNUN4LHpA9DCt+Rf7F5
cDHKwJs9HXJri5Ktb/ApOziwqeUshau+TbxFFKB8uT2YwknmvOHvXtVxP+VHw8jL
DLRYTuaGKQnAi+9JxRy56r8047GeCFwZ4N5fAgMBAAGjggEJMIIBBTAXBgNVHREE
EDAOggxsb2NhbGhvc3Qubm4wCwYDVR0PBAQDAgOoMBMGA1UdJQQMMAoGCCsGAQUF
BwMBMB0GA1UdDgQWBBQJd3exr/zwuSiAosh4JA3SyfaMaDAfBgNVHSMEGDAWgBSv
REb9pbTmkV8IY7ZQVfKbOQP88DAJBgNVHRMEAjAAMEMGCCsGAQUFBwEBBDcwNTAz
BggrBgEFBQcwAoYnaHR0cDovL3Rlc3QuY3VybC5zZS9jYS9FZGVsQ3VybFJvb3Qu
Y2VyMDgGA1UdHwQxMC8wLaAroCmGJ2h0dHA6Ly90ZXN0LmN1cmwuc2UvY2EvRWRl
bEN1cmxSb290LmNybDANBgkqhkiG9w0BAQsFAAOCAQEADIH+97nEx73TGwWQtrZ5
8UNf5wUw+WIKAI+iZDiOyZUclg5ryDf6UD4G1dV0ywrn8dtLEuNXlR5+g6Oi/zIc
Hh6zO9R8lZ5fdrgSA8SOyp2LelBjKpk62czzO2dhb/1vNm8DU3IGdaulkb03VLfV
2Jb8WirOCB67YKqz2n/V5C8QgFR3QjcVOOz6ZaL19pAGwlxMu4MY6AmWcgyoRtHl
qv0C9aO5MO331CRxNp+UPOo/5HyvPGwr6pejbINwGlsoWnEdKVugsTF6HppMZGD7
SnXkuXdzbc3rh/AZUYetgrI1Vb3s2qJ76tbTUcUsj7ecJ7eFhDqA1osRbiZ258AL
XQ==
-----END CERTIFICATE-----
