extensions = x509v3

[ x509v3 ]
subjectAltName          = DNS:localhost,DNS:localhost1,DNS:localhost2
keyUsage                = keyEncipherment,digitalSignature,keyAgreement
extendedKeyUsage        = serverAuth
subjectKeyIdentifier    = hash
authorityKeyIdentifier  = keyid
basicConstraints        = CA:false
authorityInfoAccess     = @issuer_info
crlDistributionPoints   = @crl_info

[ crl_ext ]
authorityKeyIdentifier  = keyid:always
authorityInfoAccess     = @issuer_info

[ issuer_info ]
caIssuers;URI.0         = http://test.curl.se/ca/EdelCurlRoot.cer

[ crl_info ]
URI.0                   = http://test.curl.se/ca/EdelCurlRoot.crl

[ req ]
default_bits            = 1024
distinguished_name      = req_DN
default_md              = sha256
string_mask             = utf8only

[ req_DN ]
countryName             = "Country Name is Northern Nowhere"
countryName_value       = NN
organizationName        = "Organization Name"
organizationName_value  = Edel Curl Arctic Illudium Research Cloud
commonName              = "Common Name"
commonName_value        = localhost.nn
-----BEGIN RSA PRIVATE KEY-----
MIIEogIBAAKCAQEAtIK9M/YKkAYqtrtoQE9NSOB+16Mf4f/UG+u0NpPlfDF9jb9h
rDb8MSXSWf+B98L+FHVNfbUeuR5qU8puJnHKIpdrCC4WSO3xjJuHHU/Y2soj/grM
E+BO2IC1iajcUkITw5bGZ1+W5x4RMd81H5RmRLvqpvsardES+gQ1hJjNbIlmLxb4
78jvAzSj7AgZHQE/pBVkeZ8b+lBLG2wdy7WjOVyfh7L5D5XJ9xQqLq/7Cu4nDwOe
gvYDl0ihjfvZ9KqI7TOtQCKNSotlash7gYf4zDDyP90EN9m80rkn5Or1e0R9PV3J
gGb1WniJ+4JX4aPLvU+LJ+XvGsJc8yAPVPcDjQIDAQABAoIBADze6ZagHae7rKO6
RsmI9HLi4WMuKw43CvvvW/IbpYNf3QrzwqgkUp7wNiMLOnSmWK/lbqA5d4bNbuWa
mdJ1BMjtbrZvdCxbsNzNhZ6o0mPVTpXYZkE9ntj7bjxhqQpEJg4KxhUN8wE07m92
6Z8gl+wNwm9UtgZvPor46GMyc/NpQNd/SoUXlt3MFjEb4l8O5YMxY73axKemVHM0
eyi2gP1jbOTbd6TK98aPD3gC7x71ZQlxZ1mglCXbBHKApcRB3f9dscJIEBJlJrZX
clEt/mWa8j7uuetbk5u/72tEpy0Bdx6Z1hOxaPqDXjW5W/6EXiTf0khLGJyJdST3
uA6s9gECgYEA4dhAeH5X2oxMfvHVfig8lfCaLEeudy+PeI91sgXITILU2Uno6V5o
Mj7x5sDkwVWKOwFnc3DZlESivVVQWX2JFboZmQANfMlhBIZU4WzXLAFkT7bpndrC
KA+07cQyP3u9Dr86/JEHccm/57NseirRCOFFSyVqbi7/p74AjZ+iu6ECgYEAzJzl
BwqZq3Qji7vyKNh9QRliZXkUzVpzBmyJaf+kHCWi8k1yQD99DOHlH87iQ45S9q1k
AFCeGwL2NZ00L71VCnf1ggSRNu8anJ+2RSRNRxMQ7yapz21Kvyp8zMltBJAWGFsA
yGxAXn+SxRzcKMcs3/GEQmrzl9CJvisa0KKZIG0CgYBa1phX3rmHdhbumGa+r4Bu
7q+UT+Ckn8SdQVadnCXMYHMsUsYT150hWKADqGJaQQWwZgguLp3VPSYX8VC4Lf4N
dyUEnTjPkFAtebp6UUTatlSam3+rtmmRo3+qgteTIToRzGj1XYAZDITbtRdUrBQX
9kPgzdPZLZ424f1m+WaDAQKBgFgFcp0Z2UuhtZzqKF2b7B4yLlsawHEq5OqxjFe2
KsIVCskTuf+bkE8XanrJhBqtwlDt/GQKSkmyd3pO+2FCILBVNJ9PGa05JQiVyFJs
MHZP5GwNBOX/zTT5sSBj0msxFOA7XdXag8JjPR9gr/E25b4c5tmvqsT3aBoP7wQr
vpXtAoGARzKkHEI2rtlo9rjM6VTvltMNkPhn1cuVBAOSk1HrxG4lSlFmJtpYZ31N
VoDYatUHBBnkTS2YJQRPZsTXk+UYBgnOlZDYeWLiDsMGrlrj/dlqXlFwn/qCsfKz
2e+BOE5dUSOMESkZWU64FjYZUMoVkb+1B1Yf9WjEnvnWOkksRc8=
-----END RSA PRIVATE KEY-----
Certificate:
    Data:
        Version: 3 (0x2)
        Serial Number:
            bd:fe:26:8f:33:6f:f0:69
    Signature Algorithm: sha256WithRSAEncryption
        Issuer:
            countryName               = NN
            organizationName          = Edel Curl Arctic Illudium Research Cloud
            commonName                = Northern Nowhere Trust Anchor
        Validity
            Not Before: Mar  6 09:58:52 2025 GMT
            Not After : Dec 31 09:58:52 2025 GMT
        Subject:
            countryName               = NN
            organizationName          = Edel Curl Arctic Illudium Research Cloud
            commonName                = localhost.nn
        Subject Public Key Info:
            Public Key Algorithm: rsaEncryption
                RSA Public-Key: (2048 bit)
                Modulus:
                    00:b4:82:bd:33:f6:0a:90:06:2a:b6:bb:68:40:4f:
                    4d:48:e0:7e:d7:a3:1f:e1:ff:d4:1b:eb:b4:36:93:
                    e5:7c:31:7d:8d:bf:61:ac:36:fc:31:25:d2:59:ff:
                    81:f7:c2:fe:14:75:4d:7d:b5:1e:b9:1e:6a:53:ca:
                    6e:26:71:ca:22:97:6b:08:2e:16:48:ed:f1:8c:9b:
                    87:1d:4f:d8:da:ca:23:fe:0a:cc:13:e0:4e:d8:80:
                    b5:89:a8:dc:52:42:13:c3:96:c6:67:5f:96:e7:1e:
                    11:31:df:35:1f:94:66:44:bb:ea:a6:fb:1a:ad:d1:
                    12:fa:04:35:84:98:cd:6c:89:66:2f:16:f8:ef:c8:
                    ef:03:34:a3:ec:08:19:1d:01:3f:a4:15:64:79:9f:
                    1b:fa:50:4b:1b:6c:1d:cb:b5:a3:39:5c:9f:87:b2:
                    f9:0f:95:c9:f7:14:2a:2e:af:fb:0a:ee:27:0f:03:
                    9e:82:f6:03:97:48:a1:8d:fb:d9:f4:aa:88:ed:33:
                    ad:40:22:8d:4a:8b:65:6a:c8:7b:81:87:f8:cc:30:
                    f2:3f:dd:04:37:d9:bc:d2:b9:27:e4:ea:f5:7b:44:
                    7d:3d:5d:c9:80:66:f5:5a:78:89:fb:82:57:e1:a3:
                    cb:bd:4f:8b:27:e5:ef:1a:c2:5c:f3:20:0f:54:f7:
                    03:8d
                Exponent: 65537 (0x10001)
        X509v3 extensions:
            X509v3 Subject Alternative Name: 
                DNS:localhost, DNS:localhost1, DNS:localhost2
            X509v3 Key Usage: 
                Digital Signature, Key Encipherment, Key Agreement
            X509v3 Extended Key Usage: 
                TLS Web Server Authentication
            X509v3 Subject Key Identifier: 
                9B:52:AE:0E:40:3C:98:37:8E:82:F5:8B:E1:4C:4C:CC:7F:C4:23:2D
            X509v3 Authority Key Identifier: 
                keyid:7B:72:9A:5B:F3:53:C0:55:90:F4:F0:54:C7:62:60:59:C0:AA:0A:69

            X509v3 Basic Constraints: 
                CA:FALSE
            Authority Information Access: 
                CA Issuers - URI:http://test.curl.se/ca/EdelCurlRoot.cer

            X509v3 CRL Distribution Points: 

                Full Name:
                  URI:http://test.curl.se/ca/EdelCurlRoot.crl

    Signature Algorithm: sha256WithRSAEncryption
         02:8c:01:85:8f:10:8e:14:7e:38:2f:ef:b4:47:6b:7d:8a:4f:
         15:0f:51:be:16:90:d1:b0:ec:b1:1c:d3:20:5c:d7:2f:06:c0:
         bc:45:e8:d6:6d:54:c3:d1:1d:5b:94:a1:84:a5:bc:a7:30:16:
         83:62:92:59:08:2a:12:3f:c2:eb:6f:e4:98:01:cd:30:04:a4:
         80:89:b9:07:0d:be:e5:76:c1:27:9d:a4:fa:6c:42:b5:de:ed:
         ce:0a:56:b7:99:2c:04:b9:26:85:9c:0b:c9:a7:d4:53:f8:0d:
         d6:7f:04:9c:a4:df:ba:e3:01:ef:87:9d:f4:dd:12:c6:36:1c:
         10:34:29:01:97:65:c4:cd:84:17:ab:51:ec:7b:50:c9:fb:be:
         ed:2c:ad:d0:e4:8a:e3:69:fc:e3:0d:5e:bd:7f:4f:2a:37:7c:
         03:66:d1:2b:ae:f7:7f:08:06:2c:3b:51:6f:a5:5c:1f:9a:c6:
         0b:53:b3:23:5a:40:82:b2:0f:97:aa:0e:c3:53:40:7c:a5:6f:
         94:0a:ab:80:ee:5e:b2:97:c8:5b:fe:3d:5d:2f:38:b9:6e:0b:
         c7:dc:d9:f6:03:47:30:39:16:dd:66:e7:e8:fc:f3:19:1a:4f:
         3c:8d:5c:87:be:bf:83:45:00:ff:12:ec:c1:37:27:03:1b:c8:
         99:87:62:f4
-----BEGIN CERTIFICATE-----
MIIEYjCCA0qgAwIBAgIJAL3+Jo8zb/BpMA0GCSqGSIb3DQEBCwUAMGgxCzAJBgNV
BAYTAk5OMTEwLwYDVQQKDChFZGVsIEN1cmwgQXJjdGljIElsbHVkaXVtIFJlc2Vh
cmNoIENsb3VkMSYwJAYDVQQDDB1Ob3J0aGVybiBOb3doZXJlIFRydXN0IEFuY2hv
cjAeFw0yNTAzMDYwOTU4NTJaFw0yNTEyMzEwOTU4NTJaMFcxCzAJBgNVBAYTAk5O
MTEwLwYDVQQKDChFZGVsIEN1cmwgQXJjdGljIElsbHVkaXVtIFJlc2VhcmNoIENs
b3VkMRUwEwYDVQQDDAxsb2NhbGhvc3Qubm4wggEiMA0GCSqGSIb3DQEBAQUAA4IB
DwAwggEKAoIBAQC0gr0z9gqQBiq2u2hAT01I4H7Xox/h/9Qb67Q2k+V8MX2Nv2Gs
NvwxJdJZ/4H3wv4UdU19tR65HmpTym4mccoil2sILhZI7fGMm4cdT9jayiP+CswT
4E7YgLWJqNxSQhPDlsZnX5bnHhEx3zUflGZEu+qm+xqt0RL6BDWEmM1siWYvFvjv
yO8DNKPsCBkdAT+kFWR5nxv6UEsbbB3LtaM5XJ+HsvkPlcn3FCour/sK7icPA56C
9gOXSKGN+9n0qojtM61AIo1Ki2VqyHuBh/jMMPI/3QQ32bzSuSfk6vV7RH09XcmA
ZvVaeIn7glfho8u9T4sn5e8awlzzIA9U9wONAgMBAAGjggEeMIIBGjAsBgNVHREE
JTAjgglsb2NhbGhvc3SCCmxvY2FsaG9zdDGCCmxvY2FsaG9zdDIwCwYDVR0PBAQD
AgOoMBMGA1UdJQQMMAoGCCsGAQUFBwMBMB0GA1UdDgQWBBSbUq4OQDyYN46C9Yvh
TEzMf8QjLTAfBgNVHSMEGDAWgBR7cppb81PAVZD08FTHYmBZwKoKaTAJBgNVHRME
AjAAMEMGCCsGAQUFBwEBBDcwNTAzBggrBgEFBQcwAoYnaHR0cDovL3Rlc3QuY3Vy
bC5zZS9jYS9FZGVsQ3VybFJvb3QuY2VyMDgGA1UdHwQxMC8wLaAroCmGJ2h0dHA6
Ly90ZXN0LmN1cmwuc2UvY2EvRWRlbEN1cmxSb290LmNybDANBgkqhkiG9w0BAQsF
AAOCAQEAAowBhY8QjhR+OC/vtEdrfYpPFQ9RvhaQ0bDssRzTIFzXLwbAvEXo1m1U
w9EdW5ShhKW8pzAWg2KSWQgqEj/C62/kmAHNMASkgIm5Bw2+5XbBJ52k+mxCtd7t
zgpWt5ksBLkmhZwLyafUU/gN1n8EnKTfuuMB74ed9N0SxjYcEDQpAZdlxM2EF6tR
7HtQyfu+7Syt0OSK42n84w1evX9PKjd8A2bRK673fwgGLDtRb6VcH5rGC1OzI1pA
grIPl6oOw1NAfKVvlAqrgO5espfIW/49XS84uW4Lx9zZ9gNHMDkW3Wbn6PzzGRpP
PI1ch76/g0UA/xLswTcnAxvImYdi9A==
-----END CERTIFICATE-----
