Certificate:
    Data:
        Version: 3 (0x2)
        Serial Number:
            81:34:c8:2d:81:f0:53:f7
    Signature Algorithm: sha256WithRSAEncryption
        Issuer:
            countryName               = NN
            organizationName          = Edel Curl Arctic Illudium Research Cloud
            commonName                = Northern Nowhere Trust Anchor
        Validity
            Not Before: Mar  6 10:19:34 2025 GMT
            Not After : Dec 31 10:19:34 2025 GMT
        Subject:
            countryName               = NN
            organizationName          = Edel Curl Arctic Illudium Research Cloud
            commonName                = localhost
        Subject Public Key Info:
            Public Key Algorithm: rsaEncryption
                RSA Public-Key: (2048 bit)
                Modulus:
                    00:ef:20:b0:82:a5:7a:59:b6:32:dc:a5:5c:1b:e2:
                    31:b7:1a:92:70:c1:61:77:f4:c1:e0:1d:d9:b9:23:
                    c8:d9:74:f6:c0:04:e5:fc:9a:6d:e2:13:3e:d7:9d:
                    cf:de:ae:81:70:2b:a9:fd:c6:00:2f:72:20:3c:8a:
                    1b:d1:74:65:cb:57:0f:5b:08:14:ca:13:38:45:d5:
                    05:4e:8c:38:8e:ad:fe:c2:d8:13:59:dc:ae:fe:77:
                    fc:a6:19:f9:7b:d3:8e:de:dc:53:3b:a2:a9:ff:d1:
                    1c:d0:41:3a:11:9e:d2:8e:90:b4:9b:30:b9:42:ca:
                    db:27:68:67:1f:df:dc:84:42:d3:31:15:ec:14:b1:
                    66:df:94:58:79:2d:52:05:dd:1d:4e:7a:5c:26:ff:
                    b3:1f:40:2a:f9:b0:5f:e4:3d:99:2c:0a:10:fb:5a:
                    b5:77:e1:00:21:80:53:0e:38:21:76:47:a8:a8:bb:
                    ce:ce:49:c0:a7:c3:f2:2a:30:3b:1f:ad:06:6e:0c:
                    e9:6e:ba:4f:a7:5f:13:be:96:f7:45:e8:08:8e:d6:
                    f0:4b:fb:21:87:21:92:da:ad:93:83:70:e5:1f:67:
                    11:97:22:bd:35:69:bf:90:72:3b:cf:97:31:5e:fc:
                    ba:3d:be:ae:b7:6b:b0:0c:4d:c1:ce:c8:b5:88:96:
                    90:35
                Exponent: 65537 (0x10001)
        X509v3 extensions:
            X509v3 Subject Alternative Name: 
                DNS:localhost
            X509v3 Key Usage: 
                Digital Signature, Key Encipherment, Key Agreement
            X509v3 Extended Key Usage: 
                TLS Web Server Authentication
            X509v3 Subject Key Identifier: 
                23:13:38:90:B6:47:30:A1:4A:AC:1B:7F:40:69:15:E5:DC:3F:26:1C
            X509v3 Authority Key Identifier: 
                keyid:AF:44:46:FD:A5:B4:E6:91:5F:08:63:B6:50:55:F2:9B:39:03:FC:F0

            X509v3 Basic Constraints: 
                CA:FALSE
            Authority Information Access: 
                CA Issuers - URI:http://test.curl.se/ca/EdelCurlRoot.cer

            X509v3 CRL Distribution Points: 

                Full Name:
                  URI:http://test.curl.se/ca/EdelCurlRoot.crl

    Signature Algorithm: sha256WithRSAEncryption
         b8:a9:55:78:3e:9f:b9:af:6b:89:5f:be:95:69:b8:99:52:a8:
         6e:ba:95:c3:4b:d5:26:e4:a0:7f:0e:ca:a7:4c:2d:d3:aa:8a:
         40:11:03:b6:c9:ef:5f:d2:11:8f:a5:05:99:02:28:88:a0:0c:
         35:8c:4d:f0:3e:a8:cc:74:90:ab:f2:c3:cd:92:a5:2d:e6:3e:
         19:1e:72:ac:51:a8:37:9e:4d:03:71:8d:38:25:5a:c4:2e:a1:
         87:4b:af:b1:a7:be:53:ca:23:d7:d7:c8:83:b9:be:1a:41:b6:
         11:88:40:dd:f6:87:6b:32:e8:8e:c7:5c:6f:9c:8c:85:72:8a:
         80:95:a1:93:1f:8d:73:12:ca:87:35:f9:23:c4:f0:95:e2:53:
         fd:9e:44:50:2f:a3:9d:8b:27:bf:d6:56:9d:25:00:6b:0f:86:
         49:ae:1e:1f:f7:8d:32:6c:47:0a:c0:14:2e:e6:2a:19:d6:81:
         e7:7b:2d:09:d9:ae:f7:2d:aa:3e:59:3a:11:53:fb:17:07:cb:
         48:90:9b:83:38:ea:0d:55:65:6e:aa:14:7d:95:70:e5:36:2d:
         15:2e:ec:65:53:cc:00:d8:9d:6b:87:c9:c3:b2:52:0c:78:13:
         ad:59:2b:e9:fc:31:f6:ef:7b:1b:77:88:fc:46:6b:35:f8:67:
         b0:62:5b:62
-----BEGIN CERTIFICATE-----
MIIERzCCAy+gAwIBAgIJAIE0yC2B8FP3MA0GCSqGSIb3DQEBCwUAMGgxCzAJBgNV
BAYTAk5OMTEwLwYDVQQKDChFZGVsIEN1cmwgQXJjdGljIElsbHVkaXVtIFJlc2Vh
cmNoIENsb3VkMSYwJAYDVQQDDB1Ob3J0aGVybiBOb3doZXJlIFRydXN0IEFuY2hv
cjAeFw0yNTAzMDYxMDE5MzRaFw0yNTEyMzExMDE5MzRaMFQxCzAJBgNVBAYTAk5O
MTEwLwYDVQQKDChFZGVsIEN1cmwgQXJjdGljIElsbHVkaXVtIFJlc2VhcmNoIENs
b3VkMRIwEAYDVQQDDAlsb2NhbGhvc3QwggEiMA0GCSqGSIb3DQEBAQUAA4IBDwAw
ggEKAoIBAQDvILCCpXpZtjLcpVwb4jG3GpJwwWF39MHgHdm5I8jZdPbABOX8mm3i
Ez7Xnc/eroFwK6n9xgAvciA8ihvRdGXLVw9bCBTKEzhF1QVOjDiOrf7C2BNZ3K7+
d/ymGfl7047e3FM7oqn/0RzQQToRntKOkLSbMLlCytsnaGcf39yEQtMxFewUsWbf
lFh5LVIF3R1Oelwm/7MfQCr5sF/kPZksChD7WrV34QAhgFMOOCF2R6iou87OScCn
w/IqMDsfrQZuDOluuk+nXxO+lvdF6AiO1vBL+yGHIZLarZODcOUfZxGXIr01ab+Q
cjvPlzFe/Lo9vq63a7AMTcHOyLWIlpA1AgMBAAGjggEGMIIBAjAUBgNVHREEDTAL
gglsb2NhbGhvc3QwCwYDVR0PBAQDAgOoMBMGA1UdJQQMMAoGCCsGAQUFBwMBMB0G
A1UdDgQWBBQjEziQtkcwoUqsG39AaRXl3D8mHDAfBgNVHSMEGDAWgBSvREb9pbTm
kV8IY7ZQVfKbOQP88DAJBgNVHRMEAjAAMEMGCCsGAQUFBwEBBDcwNTAzBggrBgEF
BQcwAoYnaHR0cDovL3Rlc3QuY3VybC5zZS9jYS9FZGVsQ3VybFJvb3QuY2VyMDgG
A1UdHwQxMC8wLaAroCmGJ2h0dHA6Ly90ZXN0LmN1cmwuc2UvY2EvRWRlbEN1cmxS
b290LmNybDANBgkqhkiG9w0BAQsFAAOCAQEAuKlVeD6fua9riV++lWm4mVKobrqV
w0vVJuSgfw7Kp0wt06qKQBEDtsnvX9IRj6UFmQIoiKAMNYxN8D6ozHSQq/LDzZKl
LeY+GR5yrFGoN55NA3GNOCVaxC6hh0uvsae+U8oj19fIg7m+GkG2EYhA3faHazLo
jsdcb5yMhXKKgJWhkx+NcxLKhzX5I8TwleJT/Z5EUC+jnYsnv9ZWnSUAaw+GSa4e
H/eNMmxHCsAULuYqGdaB53stCdmu9y2qPlk6EVP7FwfLSJCbgzjqDVVlbqoUfZVw
5TYtFS7sZVPMANida4fJw7JSDHgTrVkr6fwx9u97G3eI/EZrNfhnsGJbYg==
-----END CERTIFICATE-----
