Certificate:
    Data:
        Version: 3 (0x2)
        Serial Number: 14269504311644 (0xcfa60bc515c)
    Signature Algorithm: sha1WithRSAEncryption
        Issuer:
            countryName               = NN
            organizationName          = Edel Curl Arctic Illudium Research Cloud
            commonName                = Northern Nowhere Trust Anchor
        Validity
            Not Before: Mar 21 15:07:11 2015 GMT
            Not After : Jun  7 15:07:11 2023 GMT
        Subject:
            countryName               = NN
            organizationName          = Edel Curl Arctic Illudium Research Cloud
            commonName                = localhost.nn
        Subject Public Key Info:
            Public Key Algorithm: rsaEncryption
                Public-Key: (1024 bit)
                Modulus:
                    00:ac:cc:11:70:74:29:ed:7b:00:44:8a:c0:47:03:
                    50:9d:6f:51:b7:c9:7b:dd:7e:ee:29:67:5b:91:9b:
                    c7:c5:e6:9d:59:3e:6b:33:25:b7:7c:39:7c:84:79:
                    dd:15:98:e7:27:63:93:10:3a:3a:40:a0:dd:d0:1e:
                    6e:60:f4:1e:a4:f7:1e:0a:0b:84:44:77:e7:05:16:
                    39:aa:de:bd:1e:c7:bc:c9:e1:4e:8c:86:1c:3f:d6:
                    cd:e3:f2:68:02:5b:17:53:49:51:29:a8:89:f3:d0:
                    e1:5e:71:07:9f:15:47:08:40:e9:ac:49:e4:21:ac:
                    65:29:09:ca:a2:dc:9e:ab:89
                Exponent: 65537 (0x10001)
        X509v3 extensions:
            X509v3 Subject Alternative Name: 
                DNS:localhost.nn
            X509v3 Key Usage: 
                Digital Signature, Key Encipherment, Key Agreement
            X509v3 Extended Key Usage: 
                TLS Web Server Authentication
            X509v3 Subject Key Identifier: 
                12:AF:44:46:B1:04:69:61:64:83:39:A2:BD:5D:97:2B:F4:1D:D4:6C
            X509v3 Authority Key Identifier: 
                keyid:12:CA:BA:4B:46:04:A7:75:8A:2C:E8:0E:54:94:BC:12:65:A6:7B:CE

            X509v3 Basic Constraints: 
                CA:FALSE
    Signature Algorithm: sha1WithRSAEncryption
         44:54:d7:d7:75:14:60:a5:1a:1d:1e:a9:dc:6f:b1:b1:d8:13:
         e2:10:22:9a:f5:ca:b6:38:3c:d9:ac:2e:dc:ce:38:bc:cc:38:
         a1:cc:a8:9c:73:37:f9:b6:a8:42:87:d9:80:21:45:81:43:9d:
         73:3c:67:cf:cd:c5:c3:91:df:60:6b:6d:69:f9:be:a1:92:cc:
         5d:ea:bc:67:f3:c7:bc:ea:41:d1:11:7b:e3:f1:b8:a7:8d:9a:
         d0:23:6c:df:0e:2a:35:98:50:c1:a6:8b:d2:07:aa:a6:2f:cb:
         98:a9:a3:8d:a0:8c:87:ab:ec:e1:c5:0b:25:e2:e9:a9:08:13:
         30:86:1b:e5:b6:ac:03:85:35:0c:9a:5d:5b:82:c4:04:6a:05:
         4c:f3:f7:b3:b5:ac:92:3b:46:71:a8:7f:54:c7:96:37:dc:38:
         2c:a2:18:23:10:00:de:f8:21:40:52:99:94:ad:b2:b6:e5:87:
         8e:29:0b:3b:b3:8a:52:67:54:dc:0a:e9:75:60:33:ff:13:9a:
         61:a4:15:0c:d0:6f:de:0d:06:23:a8:44:ad:f0:68:60:93:6b:
         75:06:24:5b:47:9a:b9:3a:ef:d9:4f:df:31:d5:65:3a:e2:94:
         03:be:88:94:49:7c:6a:d0:da:c0:d0:62:81:f5:61:50:96:5a:
         d0:ee:22:39
-----BEGIN CERTIFICATE-----
MIIDRTCCAi2gAwIBAgIGDPpgvFFcMA0GCSqGSIb3DQEBBQUAMGgxCzAJBgNVBAYT
Ak5OMTEwLwYDVQQKDChFZGVsIEN1cmwgQXJjdGljIElsbHVkaXVtIFJlc2VhcmNo
IENsb3VkMSYwJAYDVQQDDB1Ob3J0aGVybiBOb3doZXJlIFRydXN0IEFuY2hvcjAe
Fw0xNTAzMjExNTA3MTFaFw0yMzA2MDcxNTA3MTFaMFcxCzAJBgNVBAYTAk5OMTEw
LwYDVQQKDChFZGVsIEN1cmwgQXJjdGljIElsbHVkaXVtIFJlc2VhcmNoIENsb3Vk
MRUwEwYDVQQDDAxsb2NhbGhvc3Qubm4wgZ8wDQYJKoZIhvcNAQEBBQADgY0AMIGJ
AoGBAKzMEXB0Ke17AESKwEcDUJ1vUbfJe91+7ilnW5Gbx8XmnVk+azMlt3w5fIR5
3RWY5ydjkxA6OkCg3dAebmD0HqT3HgoLhER35wUWOarevR7HvMnhToyGHD/WzePy
aAJbF1NJUSmoifPQ4V5xB58VRwhA6axJ5CGsZSkJyqLcnquJAgMBAAGjgYkwgYYw
FwYDVR0RBBAwDoIMbG9jYWxob3N0Lm5uMAsGA1UdDwQEAwIDqDATBgNVHSUEDDAK
BggrBgEFBQcDATAdBgNVHQ4EFgQUEq9ERrEEaWFkgzmivV2XK/Qd1GwwHwYDVR0j
BBgwFoAUEsq6S0YEp3WKLOgOVJS8EmWme84wCQYDVR0TBAIwADANBgkqhkiG9w0B
AQUFAAOCAQEARFTX13UUYKUaHR6p3G+xsdgT4hAimvXKtjg82awu3M44vMw4ocyo
nHM3+baoQofZgCFFgUOdczxnz83Fw5HfYGttafm+oZLMXeq8Z/PHvOpB0RF74/G4
p42a0CNs3w4qNZhQwaaL0geqpi/LmKmjjaCMh6vs4cULJeLpqQgTMIYb5basA4U1
DJpdW4LEBGoFTPP3s7WskjtGcah/VMeWN9w4LKIYIxAA3vghQFKZlK2ytuWHjikL
O7OKUmdU3ArpdWAz/xOaYaQVDNBv3g0GI6hErfBoYJNrdQYkW0eauTrv2U/fMdVl
OuKUA76IlEl8atDawNBigfVhUJZa0O4iOQ==
-----END CERTIFICATE-----
