Certificate:
    Data:
        Version: 3 (0x2)
        Serial Number:
            0b:98:94:f9:7c:6a
        Signature Algorithm: sha1WithRSAEncryption
        Issuer:
            countryName               = NN
            organizationName          = Edel Curl Arctic Illudium Research Cloud
            commonName                = Nothern Nowhere Trust Anchor
        Validity
            Not Before: May 27 21:37:11 2010 GMT
            Not After : Aug 13 21:37:11 2018 GMT
        Subject:
            countryName               = NN
            organizationName          = Edel Curl Arctic Illudium Research Cloud
            commonName                = localhost
        Subject Public Key Info:
            Public Key Algorithm: rsaEncryption
                Public-Key: (1024 bit)
                Modulus:
                    00:b0:27:79:26:2c:b9:e4:d1:81:0a:09:d2:76:fe:
                    9a:e1:05:68:01:b3:72:77:97:38:e4:60:1c:71:9d:
                    99:f7:26:7b:21:b5:6d:aa:9f:14:76:07:6c:a4:2a:
                    2d:7d:ee:f6:6f:8a:58:c4:93:de:fe:a1:25:0f:ff:
                    57:49:c0:d9:94:d9:07:79:bf:8c:6d:fa:f1:18:82:
                    67:a0:3f:d7:31:03:82:ec:b9:39:69:07:ec:ec:93:
                    17:5b:1a:72:91:93:b2:6b:98:66:63:fe:61:29:e7:
                    ad:86:0e:04:ba:bf:8b:55:57:61:a5:4a:f6:ca:e7:
                    c6:d1:b8:65:42:ab:67:64:17
                Exponent: 65537 (0x10001)
        X509v3 extensions:
            X509v3 Subject Alternative Name: 
                DNS:localhost
            X509v3 Key Usage: 
                Key Encipherment
            X509v3 Extended Key Usage: 
                TLS Web Server Authentication
            X509v3 Subject Key Identifier: 
                BC:69:86:84:70:3A:AD:DE:08:2A:70:C6:3B:47:8C:11:3F:E0:9A:6D
            X509v3 Authority Key Identifier: 
                keyid:AD:3E:E2:39:07:B8:5C:AA:26:90:94:4C:26:69:21:83:E2:4E:36:94

            X509v3 Basic Constraints: critical
                CA:FALSE
    Signature Algorithm: sha1WithRSAEncryption
        7b:f0:b0:a0:d9:d0:91:38:9b:fe:cf:78:c8:d6:30:5d:87:9d:
        b3:b9:6e:8b:5a:73:74:93:cb:30:49:d1:00:79:9d:5a:c2:71:
        a3:93:5f:de:d3:5a:0c:fb:6d:41:83:89:1b:4f:0d:1c:65:0c:
        1a:0c:0f:96:79:62:90:e1:74:04:dd:c6:d8:cf:0f:5f:0f:28:
        87:d7:86:56:90:b4:d0:88:80:f1:a7:cd:fd:0b:13:58:bb:6d:
        e6:ab:44:f6:9b:d6:cc:c7:db:3d:3a:90:c4:20:72:f4:38:38:
        c0:ef:80:1d:60:3f:4e:30:40:11:56:29:70:aa:17:91:90:5f:
        70:0b:89:51:af:17:a8:ed:20:4e:76:bb:cf:a8:88:9a:25:0f:
        3a:96:26:17:50:2a:af:f3:8b:21:9c:cf:ff:f9:20:fc:fe:c0:
        37:95:c7:cd:0d:7a:53:d9:26:12:38:2c:f6:03:95:1b:da:d0:
        08:f7:32:91:07:a7:35:0c:14:00:44:c7:43:fb:23:2e:14:44:
        e6:ee:a9:c9:20:37:09:b8:ae:21:4f:4b:b7:86:4d:e3:41:84:
        15:4e:1a:29:00:03:a8:92:99:3c:75:ea:43:0f:e3:2b:f7:17:
        b1:1b:87:80:04:d3:a7:73:b1:5e:85:38:7d:89:01:16:19:f6:
        c4:e1:1b:75
-----BEGIN CERTIFICATE-----
MIIDQTCCAimgAwIBAgIGC5iU+XxqMA0GCSqGSIb3DQEBBQUAMGcxCzAJBgNVBAYT
Ak5OMTEwLwYDVQQKDChFZGVsIEN1cmwgQXJjdGljIElsbHVkaXVtIFJlc2VhcmNo
IENsb3VkMSUwIwYDVQQDDBxOb3RoZXJuIE5vd2hlcmUgVHJ1c3QgQW5jaG9yMB4X
DTEwMDUyNzIxMzcxMVoXDTE4MDgxMzIxMzcxMVowVDELMAkGA1UEBhMCTk4xMTAv
BgNVBAoMKEVkZWwgQ3VybCBBcmN0aWMgSWxsdWRpdW0gUmVzZWFyY2ggQ2xvdWQx
EjAQBgNVBAMMCWxvY2FsaG9zdDCBnzANBgkqhkiG9w0BAQEFAAOBjQAwgYkCgYEA
sCd5Jiy55NGBCgnSdv6a4QVoAbNyd5c45GAccZ2Z9yZ7IbVtqp8UdgdspCotfe72
b4pYxJPe/qElD/9XScDZlNkHeb+MbfrxGIJnoD/XMQOC7Lk5aQfs7JMXWxpykZOy
a5hmY/5hKeethg4Eur+LVVdhpUr2yufG0bhlQqtnZBcCAwEAAaOBiTCBhjAUBgNV
HREEDTALgglsb2NhbGhvc3QwCwYDVR0PBAQDAgUgMBMGA1UdJQQMMAoGCCsGAQUF
BwMBMB0GA1UdDgQWBBS8aYaEcDqt3ggqcMY7R4wRP+CabTAfBgNVHSMEGDAWgBSt
PuI5B7hcqiaQlEwmaSGD4k42lDAMBgNVHRMBAf8EAjAAMA0GCSqGSIb3DQEBBQUA
A4IBAQB78LCg2dCROJv+z3jI1jBdh52zuW6LWnN0k8swSdEAeZ1awnGjk1/e01oM
+21Bg4kbTw0cZQwaDA+WeWKQ4XQE3cbYzw9fDyiH14ZWkLTQiIDxp839CxNYu23m
q0T2m9bMx9s9OpDEIHL0ODjA74AdYD9OMEARVilwqheRkF9wC4lRrxeo7SBOdrvP
qIiaJQ86liYXUCqv84shnM//+SD8/sA3lcfNDXpT2SYSOCz2A5Ub2tAI9zKRB6c1
DBQARMdD+yMuFETm7qnJIDcJuK4hT0u3hk3jQYQVThopAAOokpk8depDD+Mr9xex
G4eABNOnc7FehTh9iQEWGfbE4Rt1
-----END CERTIFICATE-----
