extensions = x509v3
[ x509v3 ]
subjectAltName = DNS:localhost
keyUsage	= keyEncipherment,digitalSignature,keyAgreement
extendedKeyUsage = serverAuth
subjectKeyIdentifier = hash
authorityKeyIdentifier = keyid
basicConstraints = CA:false
authorityInfoAccess     = @issuer_info
crlDistributionPoints   = @crl_info

[ crl_ext ]
authorityKeyIdentifier  = keyid:always
authorityInfoAccess     = @issuer_info

[ issuer_info ]
caIssuers;URI.0         = http://test.curl.se/ca/EdelCurlRoot.cer

[ crl_info ]
URI.0                   = http://test.curl.se/ca/EdelCurlRoot.crl

[ req ]
default_bits                    = 1024
distinguished_name              = req_DN
default_md			= sha256
string_mask			= utf8only
[ req_DN ]
countryName                     = "Country Name is Northern Nowhere"
countryName_value            = NN
organizationName              = "Organization Name"
organizationName_value     = Edel Curl Arctic Illudium Research Cloud
commonName                      = "Common Name"
commonName_value              = localhost 

[something]
# The key
# the certificate
# some dhparam
-----BEGIN RSA PRIVATE KEY-----
MIIEpQIBAAKCAQEAq2gyTw7LT30ykIausqiEj2R8La+owyvGVOGOcl0XGDmuE3Uc
hczLyJSER/aK1tuSqP8oJiYgLHwqAREfKXgtpT5vFAECuhIfyuvJdgUHWGo5Cg2N
jOA9DUdZUV+dydGjQu6TQhsXT1tWFqUvDmN714oIEwLRPv7DTvqxikSO3U4al/di
ajZjUIPGD/Mi9CPxucYuXML/4mMAlMQVs0YEqb1S2/V7qVuHj+6W6fQ506xQ4P2K
GM9grt4mWQQi3fJXGjGfyJTQalqY1OuH1oZxzgb+KpYbeubFAIKwc8sRcoeLphPA
N3PMs14QB6nM2mZLu/9ctauEtWsat/uogoQYtQIDAQABAoIBAQCBzQUUA1MJHfkV
ozhWSPEhmWnEOxqkudiWXLy/dClSChP93hi8ZisH+Rf3Wwcmz95PJfJkeUiyB1DT
wACGKeD/GrmJP36uI5150Haebg5y8PXC3CKORR1WmepUigD2XU+yFvLjA5ryWGtn
+K0ay1F0Fq4on2CPwONsQsIBwAskIIxrrwP1ICglMRvffG8xa6oxysjmbfGVoA/K
Svm+SpunzW1s76t3eKRAy+hqrUzMSW0iZ/6SSJCxAzgi0oOMSR4qCjG23Tcq3Ly/
KgRcW6Ct13Or1B663/fj5JVavBB11ev6m66Jg/aGzhUXiOy3sO9rs/pD4ObrQSgh
aaY5uiL9AoGBAN94RoqZPv4pSuODoirCTv7ZAMkqRxlneKJw9BmbvLukVnlQC2sQ
teYkvyBOTIr4+VEdsaVvOiGydILQb2peezGoymd/xtg4y8j3ndqi0ongVvvOnOSj
4elv3EISmnYPfTHyC52ZIocot0P+5qb4OI8UopMunblU4ge7g22SvPxvAoGBAMRb
xanm2OHuGSFaKSot2GA131UrWdRwT9l3nW73IAFQVeip34JIrtBOHiFimc4IdQUu
D89LoSV0Z6bwEWuJmRXb6M6rHdHGPDw0Rz8koV3v4mCK8iEH3+JmhSIblk0ljUSz
gJHi9L9ZrP4c2915QDaaNkKeaOFbDpVzle2jUJcbAoGBAKcWnVgAYXNUmKQoxlZG
Vx6CTu4a6HJ8RVzgLAQByEpdBDNMwFzbb8aW7zlOkjjPFEuscimKUuLjNe6hvsy/
vElTNZPRnHILdYPccXEKkXV6Ak/hGrpyNvZ+JyhYFJn11txDaJ/74i9BKFZ0/y0V
J+UDvtNh5ZiveRnjANArCZeNAoGAeh95uEnS6fFjv9KLd6g7wtq+pAHqRK31e5Nh
Xvpj9W05gRLl5+m8j+GF682fSv0HiskzHAI1n03eiX0V2IQjqeyzxpW2XhmkrOz2
wtbNZdckPFcucEyteem5M5VkzWZljiz18cXt4nSrmv/n3r7iqRMQXC6ZnE89qsXQ
oZPJM7ECgYEA0rkNhSPsd6ioh6g7Z+X45NR3K5xii6og4IcF7AHKUzmsv2FdHR9+
K9Pudy0IZhoX6EKN3VkBZAP1AhX4nSQA5hlh2Yzheju6qAyEGF0edVgtF6kur6iq
SJYTEPhkybV1nZif6Ej/U3tZus5ozO9FkAexsSKJX3ZC46O5bHCCz2o=
-----END RSA PRIVATE KEY-----
Certificate:
    Data:
        Version: 3 (0x2)
        Serial Number: 16693795668326 (0xf2ed3c2c166)
    Signature Algorithm: sha256WithRSAEncryption
        Issuer:
            countryName               = NN
            organizationName          = Edel Curl Arctic Illudium Research Cloud
            commonName                = Northern Nowhere Trust Anchor
        Validity
            Not Before: Nov 25 12:32:46 2022 GMT
            Not After : Feb 11 12:32:46 2031 GMT
        Subject:
            countryName               = NN
            organizationName          = Edel Curl Arctic Illudium Research Cloud
            commonName                = localhost
        Subject Public Key Info:
            Public Key Algorithm: rsaEncryption
                Public-Key: (2048 bit)
                Modulus:
                    00:ab:68:32:4f:0e:cb:4f:7d:32:90:86:ae:b2:a8:
                    84:8f:64:7c:2d:af:a8:c3:2b:c6:54:e1:8e:72:5d:
                    17:18:39:ae:13:75:1c:85:cc:cb:c8:94:84:47:f6:
                    8a:d6:db:92:a8:ff:28:26:26:20:2c:7c:2a:01:11:
                    1f:29:78:2d:a5:3e:6f:14:01:02:ba:12:1f:ca:eb:
                    c9:76:05:07:58:6a:39:0a:0d:8d:8c:e0:3d:0d:47:
                    59:51:5f:9d:c9:d1:a3:42:ee:93:42:1b:17:4f:5b:
                    56:16:a5:2f:0e:63:7b:d7:8a:08:13:02:d1:3e:fe:
                    c3:4e:fa:b1:8a:44:8e:dd:4e:1a:97:f7:62:6a:36:
                    63:50:83:c6:0f:f3:22:f4:23:f1:b9:c6:2e:5c:c2:
                    ff:e2:63:00:94:c4:15:b3:46:04:a9:bd:52:db:f5:
                    7b:a9:5b:87:8f:ee:96:e9:f4:39:d3:ac:50:e0:fd:
                    8a:18:cf:60:ae:de:26:59:04:22:dd:f2:57:1a:31:
                    9f:c8:94:d0:6a:5a:98:d4:eb:87:d6:86:71:ce:06:
                    fe:2a:96:1b:7a:e6:c5:00:82:b0:73:cb:11:72:87:
                    8b:a6:13:c0:37:73:cc:b3:5e:10:07:a9:cc:da:66:
                    4b:bb:ff:5c:b5:ab:84:b5:6b:1a:b7:fb:a8:82:84:
                    18:b5
                Exponent: 65537 (0x10001)
        X509v3 extensions:
            X509v3 Subject Alternative Name: 
                DNS:localhost
            X509v3 Key Usage: 
                Digital Signature, Key Encipherment, Key Agreement
            X509v3 Extended Key Usage: 
                TLS Web Server Authentication
            X509v3 Subject Key Identifier: 
                64:67:EE:AA:EE:F6:F1:0B:41:A6:62:B9:76:D2:C7:A9:29:D6:32:41
            X509v3 Authority Key Identifier: 
                keyid:52:40:EE:E1:4F:95:58:29:CA:84:67:8C:0F:8C:CC:FE:8F:A9:FA:A8

            X509v3 Basic Constraints: 
                CA:FALSE
            Authority Information Access: 
                CA Issuers - URI:http://test.curl.se/ca/EdelCurlRoot.cer

            X509v3 CRL Distribution Points: 

                Full Name:
                  URI:http://test.curl.se/ca/EdelCurlRoot.crl

    Signature Algorithm: sha256WithRSAEncryption
         31:d9:63:a2:0c:ca:2f:b0:5a:81:c5:07:b9:c2:49:f1:a8:8e:
         04:e9:b7:89:f9:b0:90:10:33:76:ec:c3:8f:da:c5:54:a7:99:
         4d:a7:53:e0:91:b9:89:51:83:6c:38:32:f2:8f:56:e6:e4:bc:
         22:45:a5:91:10:e0:c6:bc:2c:36:41:16:2e:58:0d:82:7e:54:
         41:f1:90:60:f8:98:54:f1:67:a4:df:2b:82:03:c5:c7:2e:a5:
         28:97:b8:3d:9f:bb:fb:4f:33:8f:a1:f6:bd:34:86:1b:f4:33:
         58:0e:23:b7:cf:39:07:22:e0:bf:31:9d:47:71:4d:e7:26:6b:
         50:08:4d:8e:5f:c8:6d:3c:c8:04:2d:07:dc:3d:d1:d4:b6:3e:
         c7:5b:dd:cd:c6:31:81:ac:0a:84:cd:e4:e3:67:f9:34:dc:7a:
         9b:aa:57:a0:ca:a9:3e:e4:f0:cc:b4:30:56:4d:31:14:65:7d:
         6a:3a:6f:26:ad:02:c4:3b:bb:f8:06:5a:e5:1f:13:6a:af:2c:
         bc:b6:ec:ae:6c:84:9b:5f:76:0b:18:f3:d6:1e:8e:37:ad:d3:
         15:ec:7f:74:c3:53:54:8d:f0:42:f9:40:0d:f1:48:a5:e6:94:
         2f:7c:fc:16:0c:95:c8:86:a3:b7:71:10:c1:19:be:50:73:2a:
         22:15:19:56
-----BEGIN CERTIFICATE-----
MIIERDCCAyygAwIBAgIGDy7TwsFmMA0GCSqGSIb3DQEBCwUAMGgxCzAJBgNVBAYT
Ak5OMTEwLwYDVQQKDChFZGVsIEN1cmwgQXJjdGljIElsbHVkaXVtIFJlc2VhcmNo
IENsb3VkMSYwJAYDVQQDDB1Ob3J0aGVybiBOb3doZXJlIFRydXN0IEFuY2hvcjAe
Fw0yMjExMjUxMjMyNDZaFw0zMTAyMTExMjMyNDZaMFQxCzAJBgNVBAYTAk5OMTEw
LwYDVQQKDChFZGVsIEN1cmwgQXJjdGljIElsbHVkaXVtIFJlc2VhcmNoIENsb3Vk
MRIwEAYDVQQDDAlsb2NhbGhvc3QwggEiMA0GCSqGSIb3DQEBAQUAA4IBDwAwggEK
AoIBAQCraDJPDstPfTKQhq6yqISPZHwtr6jDK8ZU4Y5yXRcYOa4TdRyFzMvIlIRH
9orW25Ko/ygmJiAsfCoBER8peC2lPm8UAQK6Eh/K68l2BQdYajkKDY2M4D0NR1lR
X53J0aNC7pNCGxdPW1YWpS8OY3vXiggTAtE+/sNO+rGKRI7dThqX92JqNmNQg8YP
8yL0I/G5xi5cwv/iYwCUxBWzRgSpvVLb9XupW4eP7pbp9DnTrFDg/YoYz2Cu3iZZ
BCLd8lcaMZ/IlNBqWpjU64fWhnHOBv4qlht65sUAgrBzyxFyh4umE8A3c8yzXhAH
qczaZku7/1y1q4S1axq3+6iChBi1AgMBAAGjggEGMIIBAjAUBgNVHREEDTALggls
b2NhbGhvc3QwCwYDVR0PBAQDAgOoMBMGA1UdJQQMMAoGCCsGAQUFBwMBMB0GA1Ud
DgQWBBRkZ+6q7vbxC0GmYrl20sepKdYyQTAfBgNVHSMEGDAWgBRSQO7hT5VYKcqE
Z4wPjMz+j6n6qDAJBgNVHRMEAjAAMEMGCCsGAQUFBwEBBDcwNTAzBggrBgEFBQcw
AoYnaHR0cDovL3Rlc3QuY3VybC5zZS9jYS9FZGVsQ3VybFJvb3QuY2VyMDgGA1Ud
HwQxMC8wLaAroCmGJ2h0dHA6Ly90ZXN0LmN1cmwuc2UvY2EvRWRlbEN1cmxSb290
LmNybDANBgkqhkiG9w0BAQsFAAOCAQEAMdljogzKL7BagcUHucJJ8aiOBOm3ifmw
kBAzduzDj9rFVKeZTadT4JG5iVGDbDgy8o9W5uS8IkWlkRDgxrwsNkEWLlgNgn5U
QfGQYPiYVPFnpN8rggPFxy6lKJe4PZ+7+08zj6H2vTSGG/QzWA4jt885ByLgvzGd
R3FN5yZrUAhNjl/IbTzIBC0H3D3R1LY+x1vdzcYxgawKhM3k42f5NNx6m6pXoMqp
PuTwzLQwVk0xFGV9ajpvJq0CxDu7+AZa5R8Taq8svLbsrmyEm192Cxjz1h6ON63T
Fex/dMNTVI3wQvlADfFIpeaUL3z8FgyVyIajt3EQwRm+UHMqIhUZVg==
-----END CERTIFICATE-----
