extensions = x509v3
[ x509v3 ]
subjectAltName = DNS:localhost,DNS:localhost1,DNS:localhost2
keyUsage	= keyEncipherment,digitalSignature,keyAgreement
extendedKeyUsage = serverAuth
subjectKeyIdentifier = hash
authorityKeyIdentifier = keyid
basicConstraints = CA:false
[ req ]
default_bits                    = 1024
distinguished_name              = req_DN
default_md			= sha256
string_mask			= utf8only
[ req_DN ]
countryName                     = "Country Name is Northern Nowhere"
countryName_value            = NN
organizationName              = "Organization Name"
organizationName_value     = Edel Curl Arctic Illudium Research Cloud
commonName                      = "Common Name"
commonName_value              = localhost.nn

[something]
# The key
# the certificate
# some dhparam
-----BEGIN RSA PRIVATE KEY-----
MIIEogIBAAKCAQEAysRbHrTv9YEW5rmq5TcSYqug8R1NdsFGXoSZHhuLMESkmYwf
PdLpBEke4WNEu7azWCOrXYKK52VTNYnNSiSITXDZW/j1TXuLDr+KqxupddwyjVqy
Z/IywF3lFUzO9j55eQzw9ta9+6O8FJizTZ8o9KRbWb3EEcoDa6Sew5hb89H7i2Lu
11YySrYaPrk+rYesTKoiSVf0PAMFQWSLDYuru/NCHj3T3OtXc50g/qCBH4rJY0ht
fPl0MjI931AnFjyBDHBbbETn+xl6qjC83E1lYmkBwE9ByWy8XkfZcWG0lnIU0RME
wxHxmKWAX3rnpePJPc0hmIy1b5RAwsKnla7vBQIDAQABAoIBABuyZp/zJzPpxi8N
/YIB28kOmJVW41XtYKdYhXHPYVvehH1U3o+bV6j2M/mljaX2dtj7RlUnl8Gz3YHa
qOgPxW6Ok6I0h41l6sDA+TgWNzeaNG2KjgQU2UndiYU3UK3iKsWWNvQAsULGQtKt
aRCZRQblzHSdr0KezYjOm8Er9qN/NRbL2Sc38szOq1/l8/Zm0EXvMNt/ffJPkzV9
/GNtpX5HCMk/mK61MrgCxDASYZTMR4cVFIrHgeWWhi06wEuaFIbW8+9cnBZ/6wTc
AsiVqehWzgdP2UYA0pIUberhlpsX1RLoz7XHxynA4k5A0F9H/UKfyCFSNy8gPqwg
FmW8QqECgYEA5GUnKx1EfV84GPNqxMD1joKrrptMJfqweANGblRVhU3+bg/pWx8H
FBgRieQJB+qzqbxkIf9rFq6CH5FqfHZBD5srztTXsEa/iLeEfLucNVzyAoqS+mf8
7O4kKIx+iJuqBBKegQXPSbnEOljkDoXSRLZnhTqhrXxYBhgGrJcp1bcCgYEA40Y8
OTrWn/ceJJELkDg3VI82w+c65GUVFP2RlxP6Lz1TkXli1Ezv488mH19+fVkMTf9L
052ym13tjSc1H1j+ad3WMzA7tBHOWTfKdYeg34ymoQIXxbnpuzkId325Q2jeBenB
FF2lkwIcLnyMXSBJcBfWxqipIRO83TOT31/nASMCgYBv7jrR4FgOcTnW0ISExGQT
YWqt+aHKAx+00TYVH/OBjwWf/uBILd6UNG9z+nOKk7VU++S+3KQoy4Et42AievnL
oipIBPtngmSfpgCh+HfHlzNrl2oMmiXUH6lMzf29CTy7Hjzb0nMSGJ5YUfQCQgcY
caQuINvXX9brtZ6fur1f5QKBgGR+4xRfSxYS3HZI2Lcd1IGEji/T6Duj4s2UTjNi
twb6dCBob2X220B9kZrfy/u7S3CVyb66BYcj4m2+/4NsA5tmZ1fdJRk7omXbAKA1
p9IRzIB3f3GEArExx+emZSxEi6BLu3+45QT7MuDvW9W1+CMjt2nCnH6uzp11OBbW
vjvHAoGAco3FdBxqRKzBvyyRFzDAMhc/4VcSSCgNj7ya76eyYtlr4zF+4+fg3OaZ
X/BZydglf89WvMbJkF6Y0hFx92AwFF7Ns3YpAjWhTudi9jDUX1sT1s7ZXHtL+Qei
6+Pek6d57gk0ogSs64DwSosFxnfkZLKzPJt15lwfliurnYeaBsg=
-----END RSA PRIVATE KEY-----
Certificate:
    Data:
        Version: 3 (0x2)
        Serial Number: 15361900975180 (0xdf8b8a6944c)
    Signature Algorithm: sha1WithRSAEncryption
        Issuer:
            countryName               = NN
            organizationName          = Edel Curl Arctic Illudium Research Cloud
            commonName                = Northern Nowhere Trust Anchor
        Validity
            Not Before: Sep  5 23:28:17 2018 GMT
            Not After : Nov 22 23:28:17 2026 GMT
        Subject:
            countryName               = NN
            organizationName          = Edel Curl Arctic Illudium Research Cloud
            commonName                = localhost.nn
        Subject Public Key Info:
            Public Key Algorithm: rsaEncryption
                Public-Key: (2048 bit)
                Modulus:
                    00:ca:c4:5b:1e:b4:ef:f5:81:16:e6:b9:aa:e5:37:
                    12:62:ab:a0:f1:1d:4d:76:c1:46:5e:84:99:1e:1b:
                    8b:30:44:a4:99:8c:1f:3d:d2:e9:04:49:1e:e1:63:
                    44:bb:b6:b3:58:23:ab:5d:82:8a:e7:65:53:35:89:
                    cd:4a:24:88:4d:70:d9:5b:f8:f5:4d:7b:8b:0e:bf:
                    8a:ab:1b:a9:75:dc:32:8d:5a:b2:67:f2:32:c0:5d:
                    e5:15:4c:ce:f6:3e:79:79:0c:f0:f6:d6:bd:fb:a3:
                    bc:14:98:b3:4d:9f:28:f4:a4:5b:59:bd:c4:11:ca:
                    03:6b:a4:9e:c3:98:5b:f3:d1:fb:8b:62:ee:d7:56:
                    32:4a:b6:1a:3e:b9:3e:ad:87:ac:4c:aa:22:49:57:
                    f4:3c:03:05:41:64:8b:0d:8b:ab:bb:f3:42:1e:3d:
                    d3:dc:eb:57:73:9d:20:fe:a0:81:1f:8a:c9:63:48:
                    6d:7c:f9:74:32:32:3d:df:50:27:16:3c:81:0c:70:
                    5b:6c:44:e7:fb:19:7a:aa:30:bc:dc:4d:65:62:69:
                    01:c0:4f:41:c9:6c:bc:5e:47:d9:71:61:b4:96:72:
                    14:d1:13:04:c3:11:f1:98:a5:80:5f:7a:e7:a5:e3:
                    c9:3d:cd:21:98:8c:b5:6f:94:40:c2:c2:a7:95:ae:
                    ef:05
                Exponent: 65537 (0x10001)
        X509v3 extensions:
            X509v3 Subject Alternative Name: 
                DNS:localhost, DNS:localhost1, DNS:localhost2
            X509v3 Key Usage: 
                Digital Signature, Key Encipherment, Key Agreement
            X509v3 Extended Key Usage: 
                TLS Web Server Authentication
            X509v3 Subject Key Identifier: 
                3B:B0:44:94:FB:03:62:D4:90:31:0A:89:AC:43:2C:16:F1:F0:0A:B1
            X509v3 Authority Key Identifier: 
                keyid:12:CA:BA:4B:46:04:A7:75:8A:2C:E8:0E:54:94:BC:12:65:A6:7B:CE

            X509v3 Basic Constraints: 
                CA:FALSE
    Signature Algorithm: sha1WithRSAEncryption
         a3:2d:58:29:5b:6f:eb:7f:93:58:ed:6e:68:4c:65:7c:2d:ae:
         ad:7b:bf:8a:7f:20:47:97:02:3a:8d:bd:8e:8b:7f:f3:d7:11:
         39:67:45:18:9e:7e:75:f0:6d:78:ca:27:df:6b:88:42:aa:93:
         94:30:eb:6f:ae:2d:94:fa:af:03:9f:e1:3c:a6:f7:47:b8:2f:
         f1:36:6f:e1:d1:31:4f:01:45:b7:77:b0:7b:38:21:7b:92:c3:
         6b:c2:2e:ce:8f:81:9e:00:84:18:17:91:0d:95:30:6a:3e:d8:
         2a:4b:1a:d9:81:35:18:49:cb:18:34:b4:66:9a:7e:78:f5:29:
         36:86:70:02:7e:51:05:7d:be:21:b0:23:05:54:a9:28:23:2e:
         fa:3f:84:37:ea:47:69:0e:6b:be:28:04:58:ab:fb:d5:54:1d:
         3c:03:28:18:39:80:78:cb:6c:a8:56:ef:47:7b:ff:c0:c3:36:
         e7:ef:42:f3:8b:b7:e4:37:55:6c:90:2d:db:01:50:72:4a:2b:
         ba:e5:a2:73:c8:5e:25:fa:d6:8d:4f:b2:6e:cf:31:29:83:33:
         e3:0d:d9:77:23:21:a8:a6:63:90:13:c6:e3:c9:0f:cc:46:39:
         5d:a3:67:fa:1e:fd:ee:e9:4d:20:8e:a6:5e:d4:b2:e2:ab:e0:
         56:4a:35:51
-----BEGIN CERTIFICATE-----
MIID3jCCAsagAwIBAgIGDfi4ppRMMA0GCSqGSIb3DQEBBQUAMGgxCzAJBgNVBAYT
Ak5OMTEwLwYDVQQKDChFZGVsIEN1cmwgQXJjdGljIElsbHVkaXVtIFJlc2VhcmNo
IENsb3VkMSYwJAYDVQQDDB1Ob3J0aGVybiBOb3doZXJlIFRydXN0IEFuY2hvcjAe
Fw0xODA5MDUyMzI4MTdaFw0yNjExMjIyMzI4MTdaMFcxCzAJBgNVBAYTAk5OMTEw
LwYDVQQKDChFZGVsIEN1cmwgQXJjdGljIElsbHVkaXVtIFJlc2VhcmNoIENsb3Vk
MRUwEwYDVQQDDAxsb2NhbGhvc3Qubm4wggEiMA0GCSqGSIb3DQEBAQUAA4IBDwAw
ggEKAoIBAQDKxFsetO/1gRbmuarlNxJiq6DxHU12wUZehJkeG4swRKSZjB890ukE
SR7hY0S7trNYI6tdgornZVM1ic1KJIhNcNlb+PVNe4sOv4qrG6l13DKNWrJn8jLA
XeUVTM72Pnl5DPD21r37o7wUmLNNnyj0pFtZvcQRygNrpJ7DmFvz0fuLYu7XVjJK
tho+uT6th6xMqiJJV/Q8AwVBZIsNi6u780IePdPc61dznSD+oIEfisljSG18+XQy
Mj3fUCcWPIEMcFtsROf7GXqqMLzcTWViaQHAT0HJbLxeR9lxYbSWchTREwTDEfGY
pYBfeuel48k9zSGYjLVvlEDCwqeVru8FAgMBAAGjgZ4wgZswLAYDVR0RBCUwI4IJ
bG9jYWxob3N0ggpsb2NhbGhvc3Qxggpsb2NhbGhvc3QyMAsGA1UdDwQEAwIDqDAT
BgNVHSUEDDAKBggrBgEFBQcDATAdBgNVHQ4EFgQUO7BElPsDYtSQMQqJrEMsFvHw
CrEwHwYDVR0jBBgwFoAUEsq6S0YEp3WKLOgOVJS8EmWme84wCQYDVR0TBAIwADAN
BgkqhkiG9w0BAQUFAAOCAQEAoy1YKVtv63+TWO1uaExlfC2urXu/in8gR5cCOo29
jot/89cROWdFGJ5+dfBteMon32uIQqqTlDDrb64tlPqvA5/hPKb3R7gv8TZv4dEx
TwFFt3ewezghe5LDa8Iuzo+BngCEGBeRDZUwaj7YKksa2YE1GEnLGDS0Zpp+ePUp
NoZwAn5RBX2+IbAjBVSpKCMu+j+EN+pHaQ5rvigEWKv71VQdPAMoGDmAeMtsqFbv
R3v/wMM25+9C84u35DdVbJAt2wFQckoruuWic8heJfrWjU+ybs8xKYMz4w3ZdyMh
qKZjkBPG48kPzEY5XaNn+h797ulNII6mXtSy4qvgVko1UQ==
-----END CERTIFICATE-----
