extensions = x509v3
[ x509v3 ]
subjectAltName = DNS:localhost
keyUsage	= keyEncipherment
extendedKeyUsage = serverAuth
subjectKeyIdentifier = hash
authorityKeyIdentifier = keyid
basicConstraints = critical,CA:false
[ req ]
default_bits                    = 1024
distinguished_name              = req_DN
default_md			= sha256
string_mask			= utf8only
[ req_DN ]
countryName                     = "Country Name is Northern Nowhere"
countryName_value            = NN
organizationName              = "Organization Name"
organizationName_value     = Edel Curl Arctic Illudium Research Cloud
commonName                      = "Common Name"
commonName_value              = localhost 

[something]
# The key
# the certficate
# some dhparam
-----BEGIN RSA PRIVATE KEY-----
MIICXQIBAAKBgQDTb1PtMqFpICJuXGk0PY8UZWHI95kV7KlRQ4d6sEtlxcJ85Erw
xyVCGezshFpioE7e+S2GquWyuffoH13GjQexg1SSqGVdLOY74PMOrrJyBUzdhZAW
vB8DWSN2vuA47iEFN9ABMX0fPPX9eFbNy4a70egHc6aQ+Tt+nYW8PCp4SQIDAQAB
AoGBAMhtVySaAzJxONJfHYdc934BIPHt7BtBbbvQBOSDq+V80wGrM3MNhL8lbldC
m5+0kS+DC+oFpJqI+Xz8BtwJooilPuQO3syo5YZuFRee81M8Z5Ss78TG6FLdjt6Z
hKQHju+Ghxm08pd2cTaYGDzS3LYsvSXz4TnsdWAVATCwKTSFAkEA8HnPcZdAXiLJ
eA2cRAuyEUPjs7B6eR5dLraLrIOtcKs/xJH/W+63hhMjqe9CASuSzVJEr8QxijYN
Cdlq3V3XhwJBAOEVk48TZF+gc87sWsBIy+mn3MdovKbmnYM/rzVXYiu2mBQ+nKhp
mevRc/UJdkaW8H340wRm1qGMYPCeekRdha8CQCuHcSR3o4Amvd9MX2f10gLMDjCd
ll3MQEPPaVMN9tw5M27KmrWybWgImOEO3RzHHWirJqHGWs1Q4WVSBMUTUosCQQDf
sz/6HL3PRHqUltcC79apnEmSbgfAoMa/INYTX4uUAl9XD3tG7d0qP/rM9+By+6R8
roWahFKgMBJQUlEWDRTFAkAiLYKd8pxw3x3kuk5ItmTiq3JNluMyIA/i3RVW1aVO
U5tX8sw6r4wVcsvXVboS/Trjeev2qkqC06ARV7vb6Wq5
-----END RSA PRIVATE KEY-----
Certificate:
    Data:
        Version: 3 (0x2)
        Serial Number:
            0b:5d:0a:89:a5:41
        Signature Algorithm: sha1WithRSAEncryption
        Issuer:
            countryName               = NN
            organizationName          = Edel Curl Arctic Illudium Research Cloud
            commonName                = Nothern Nowhere Trust Anchor
        Validity
            Not Before: Aug  4 22:07:52 2009 GMT
            Not After : Oct 21 22:07:52 2017 GMT
        Subject:
            countryName               = NN
            organizationName          = Edel Curl Arctic Illudium Research Cloud
            commonName                = localhost
        Subject Public Key Info:
            Public Key Algorithm: rsaEncryption
                Public-Key: (1024 bit)
                Modulus:
                    00:d3:6f:53:ed:32:a1:69:20:22:6e:5c:69:34:3d:
                    8f:14:65:61:c8:f7:99:15:ec:a9:51:43:87:7a:b0:
                    4b:65:c5:c2:7c:e4:4a:f0:c7:25:42:19:ec:ec:84:
                    5a:62:a0:4e:de:f9:2d:86:aa:e5:b2:b9:f7:e8:1f:
                    5d:c6:8d:07:b1:83:54:92:a8:65:5d:2c:e6:3b:e0:
                    f3:0e:ae:b2:72:05:4c:dd:85:90:16:bc:1f:03:59:
                    23:76:be:e0:38:ee:21:05:37:d0:01:31:7d:1f:3c:
                    f5:fd:78:56:cd:cb:86:bb:d1:e8:07:73:a6:90:f9:
                    3b:7e:9d:85:bc:3c:2a:78:49
                Exponent: 65537 (0x10001)
        X509v3 extensions:
            X509v3 Subject Alternative Name: 
                DNS:localhost
            X509v3 Key Usage: 
                Key Encipherment
            X509v3 Extended Key Usage: 
                TLS Web Server Authentication
            X509v3 Subject Key Identifier: 
                53:59:CB:8D:67:CD:E7:63:E2:E5:DD:F0:F8:E1:82:ED:A8:10:38:A3
            X509v3 Authority Key Identifier: 
                keyid:12:6B:24:D2:4A:68:B7:A1:B0:1C:CD:BF:D6:4C:CC:40:5B:7F:E0:40

            X509v3 Basic Constraints: critical
                CA:FALSE
    Signature Algorithm: sha1WithRSAEncryption
        06:3f:b8:df:8e:20:9d:cd:cd:bc:a9:88:eb:2d:f8:e6:f0:15:
        fa:14:9c:5f:55:bc:8f:68:40:aa:d2:51:03:ab:09:ee:ee:a6:
        d7:8f:32:9a:75:0b:41:35:71:bf:d9:35:03:dd:fd:e5:7d:45:
        db:e5:9a:16:14:14:c7:98:a5:c5:b9:4d:81:3a:0c:f9:e0:97:
        71:d0:f3:a0:5d:84:ba:83:a8:d8:a0:98:bf:12:48:42:f0:1b:
        8a:58:80:16:62:69:bb:96:5a:ce:ac:02:fa:cb:cd:20:30:d0:
        fb:23:3a:d3:7b:75:03:c8:c1:20:9e:24:90:d2:61:00:85:63:
        e2:f9:a7:52:50:e2:0d:3b:61:f9:b1:d5:5f:64:dd:cb:38:7b:
        05:8d:b7:f9:08:8e:bf:d3:02:13:e7:34:fa:3d:bb:af:d7:aa:
        de:79:28:f4:ae:87:f5:49:85:42:c7:af:8b:a0:94:ed:21:de:
        36:e6:38:a3:0f:75:cf:68:10:48:1d:7d:9b:a2:88:86:bd:b5:
        fe:95:4a:c8:fe:77:6b:0a:47:79:ab:d6:35:ea:53:4f:8f:3a:
        ba:e1:4c:00:57:b8:99:f9:21:5d:d2:ad:d9:c7:fa:bf:71:73:
        49:5d:0b:2c:fd:02:37:94:3c:3e:d7:ef:72:c5:e3:f3:14:9f:
        58:27:2a:aa
-----BEGIN CERTIFICATE-----
MIIDQTCCAimgAwIBAgIGC10KiaVBMA0GCSqGSIb3DQEBBQUAMGcxCzAJBgNVBAYT
Ak5OMTEwLwYDVQQKDChFZGVsIEN1cmwgQXJjdGljIElsbHVkaXVtIFJlc2VhcmNo
IENsb3VkMSUwIwYDVQQDDBxOb3RoZXJuIE5vd2hlcmUgVHJ1c3QgQW5jaG9yMB4X
DTA5MDgwNDIyMDc1MloXDTE3MTAyMTIyMDc1MlowVDELMAkGA1UEBhMCTk4xMTAv
BgNVBAoMKEVkZWwgQ3VybCBBcmN0aWMgSWxsdWRpdW0gUmVzZWFyY2ggQ2xvdWQx
EjAQBgNVBAMMCWxvY2FsaG9zdDCBnzANBgkqhkiG9w0BAQEFAAOBjQAwgYkCgYEA
029T7TKhaSAiblxpND2PFGVhyPeZFeypUUOHerBLZcXCfORK8MclQhns7IRaYqBO
3vkthqrlsrn36B9dxo0HsYNUkqhlXSzmO+DzDq6ycgVM3YWQFrwfA1kjdr7gOO4h
BTfQATF9Hzz1/XhWzcuGu9HoB3OmkPk7fp2FvDwqeEkCAwEAAaOBiTCBhjAUBgNV
HREEDTALgglsb2NhbGhvc3QwCwYDVR0PBAQDAgUgMBMGA1UdJQQMMAoGCCsGAQUF
BwMBMB0GA1UdDgQWBBRTWcuNZ83nY+Ll3fD44YLtqBA4ozAfBgNVHSMEGDAWgBQS
ayTSSmi3obAczb/WTMxAW3/gQDAMBgNVHRMBAf8EAjAAMA0GCSqGSIb3DQEBBQUA
A4IBAQAGP7jfjiCdzc28qYjrLfjm8BX6FJxfVbyPaECq0lEDqwnu7qbXjzKadQtB
NXG/2TUD3f3lfUXb5ZoWFBTHmKXFuU2BOgz54Jdx0POgXYS6g6jYoJi/EkhC8BuK
WIAWYmm7llrOrAL6y80gMND7IzrTe3UDyMEgniSQ0mEAhWPi+adSUOINO2H5sdVf
ZN3LOHsFjbf5CI6/0wIT5zT6Pbuv16reeSj0rof1SYVCx6+LoJTtId425jijD3XP
aBBIHX2booiGvbX+lUrI/ndrCkd5q9Y16lNPjzq64UwAV7iZ+SFd0q3Zx/q/cXNJ
XQss/QI3lDw+1+9yxePzFJ9YJyqq
-----END CERTIFICATE-----
-----BEGIN DH PARAMETERS-----
MIGHAoGBAP5mA7oYimErFUulbvNC8V0HwyB62NCj6TZb6YXJwElCksQc8RyHnkrY
9Wx2+lduFqHjUWalgVF7Gma7CfR/pt+fiU6Jn2vWR2v7KT6hYeRKsJrONJlth+NK
V7/d4zyvleJ/VSp0TuuSxmMMQ6hG3i5YhSGXyCh4h0pl4Wu/hdVTAgEC
-----END DH PARAMETERS-----
