extensions = x509v3
[ x509v3 ]
subjectAltName = DNS:localhost
keyUsage	= keyEncipherment,digitalSignature,keyAgreement
extendedKeyUsage = serverAuth
subjectKeyIdentifier = hash
authorityKeyIdentifier = keyid
basicConstraints = CA:false
[ req ]
default_bits                    = 1024
distinguished_name              = req_DN
default_md			= sha256
string_mask			= utf8only
[ req_DN ]
countryName                     = "Country Name is Northern Nowhere"
countryName_value            = NN
organizationName              = "Organization Name"
organizationName_value     = Edel Curl Arctic Illudium Research Cloud
commonName                      = "Common Name"
commonName_value              = localhost 

[something]
# The key
# the certificate
# some dhparam
-----BEGIN RSA PRIVATE KEY-----
MIICXgIBAAKBgQC6X0tpdDGZTfS0typluLcxwTjPNje7XhjjUh9SqlolLwxmiDKw
77IskDhebm8O5Ds/8C7xej1ew2SGP2i3zwuz6grKlBbUK2oC46Gzx9HQBrj/39zg
Mirn3WLMccToz53eXHVpnbbO4kLYp71QVHgtVWd/AHuPnBHRns6+Hv7PNwIDAQAB
AoGBAJdWRGVIPfJP1BJe3eWl3dRgI2JXk1/pY+pLSDYXMIYbM0Wa+RamPRdksPE1
WadM+zPLNENP0L+/iERe/wiq7sNxKQLwH5eE3tUxC+iC8GO6gQ2zHaWVNu3R79CM
t8YZhlmG2o+xC4CGYzuITgPE16m24CYauLZHO/YVDzG6yNApAkEA6K0db5bZmIaU
TJW/jEnPJSubDx8kE1YncTOAKaAeoJwaaSfFphVKNGNrZHu3jBhKFgVNBNxGUWrW
0pIkDrb3hQJBAM0N7+ghZ/7vaOoKqYHQI2z8SgPsUjQjmubCBALe/Ys3kg9PPpyz
umJSAOYjC4X1dSlkAkciJqRS0Y6uKgSH4osCQQCVIWftft1GsnNYxt43t5MKOvGu
doIz1pN/LcgmZddbj9IptfErqxedjl9lzxnstCDADnO3+ssjIfxAiKSNvd3VAkA3
3yFMTbXpZ9BdXPRc05qjeoasVPr9C+qMD7dKFPpesZCRrVTxG6OgYJmwG0JriLsY
wRBB05NV2N8SknAOdfwLAkEAw5Hqxc/Xlh6xhy9tBdJXDtuptV10mg6EbO98x9/7
gyuAArSguhXna+aRqjLRelCwVB9f9aZ1XVoDKWVCsnfCbQ==
-----END RSA PRIVATE KEY-----
Certificate:
    Data:
        Version: 3 (0x2)
        Serial Number: 14269504311627 (0xcfa60bc514b)
    Signature Algorithm: sha1WithRSAEncryption
        Issuer:
            countryName               = NN
            organizationName          = Edel Curl Arctic Illudium Research Cloud
            commonName                = Northern Nowhere Trust Anchor
        Validity
            Not Before: Mar 21 15:07:11 2015 GMT
            Not After : Jun  7 15:07:11 2023 GMT
        Subject:
            countryName               = NN
            organizationName          = Edel Curl Arctic Illudium Research Cloud
            commonName                = localhost
        Subject Public Key Info:
            Public Key Algorithm: rsaEncryption
                Public-Key: (1024 bit)
                Modulus:
                    00:ba:5f:4b:69:74:31:99:4d:f4:b4:b7:2a:65:b8:
                    b7:31:c1:38:cf:36:37:bb:5e:18:e3:52:1f:52:aa:
                    5a:25:2f:0c:66:88:32:b0:ef:b2:2c:90:38:5e:6e:
                    6f:0e:e4:3b:3f:f0:2e:f1:7a:3d:5e:c3:64:86:3f:
                    68:b7:cf:0b:b3:ea:0a:ca:94:16:d4:2b:6a:02:e3:
                    a1:b3:c7:d1:d0:06:b8:ff:df:dc:e0:32:2a:e7:dd:
                    62:cc:71:c4:e8:cf:9d:de:5c:75:69:9d:b6:ce:e2:
                    42:d8:a7:bd:50:54:78:2d:55:67:7f:00:7b:8f:9c:
                    11:d1:9e:ce:be:1e:fe:cf:37
                Exponent: 65537 (0x10001)
        X509v3 extensions:
            X509v3 Subject Alternative Name: 
                DNS:localhost
            X509v3 Key Usage: 
                Digital Signature, Key Encipherment, Key Agreement
            X509v3 Extended Key Usage: 
                TLS Web Server Authentication
            X509v3 Subject Key Identifier: 
                7E:42:8D:AC:2E:93:AD:4C:E0:09:AC:C6:08:F1:82:E0:B7:B7:C6:7F
            X509v3 Authority Key Identifier: 
                keyid:12:CA:BA:4B:46:04:A7:75:8A:2C:E8:0E:54:94:BC:12:65:A6:7B:CE

            X509v3 Basic Constraints: 
                CA:FALSE
    Signature Algorithm: sha1WithRSAEncryption
         00:fe:c4:fc:4b:28:b8:bc:39:8c:6f:f1:72:d3:76:da:28:27:
         e2:97:94:bb:ad:2f:91:c4:db:df:33:4b:48:4e:97:5b:4c:4c:
         be:fc:e4:b7:19:5c:b8:83:6e:ef:2c:b0:d5:7c:fc:0d:cb:7e:
         29:ed:fd:4d:ef:05:1c:89:15:31:78:9b:18:29:d3:37:83:c7:
         39:f4:78:27:b7:00:75:d1:fb:f0:29:88:79:e4:e9:a7:d4:65:
         04:bf:d5:a1:dc:05:b2:17:c4:a9:da:61:10:22:5f:8f:50:fc:
         1f:ab:f6:39:dd:ab:35:a6:94:54:63:5c:6d:25:f0:dc:3a:0a:
         70:4e:49:ef:be:fa:2c:0a:cd:ce:a6:2d:26:cd:f8:24:89:77:
         2c:ea:6e:19:b6:5c:8c:1a:08:ea:a8:9f:2c:1b:c7:fc:13:6c:
         fe:a7:90:08:e5:98:83:30:52:86:ac:83:0b:cb:25:92:21:94:
         80:13:d7:e8:d0:42:56:83:55:d3:09:9b:e8:c5:96:82:15:64:
         6b:83:77:eb:99:e5:52:dc:1b:36:29:a0:c9:da:8b:d3:0d:77:
         24:f2:c3:df:2e:c4:93:e0:34:47:a9:9b:54:d3:75:d5:c7:de:
         88:a1:ef:7b:40:2f:dc:e9:28:8c:69:be:eb:71:4a:c2:30:50:
         99:36:52:69
-----BEGIN CERTIFICATE-----
MIIDPzCCAiegAwIBAgIGDPpgvFFLMA0GCSqGSIb3DQEBBQUAMGgxCzAJBgNVBAYT
Ak5OMTEwLwYDVQQKDChFZGVsIEN1cmwgQXJjdGljIElsbHVkaXVtIFJlc2VhcmNo
IENsb3VkMSYwJAYDVQQDDB1Ob3J0aGVybiBOb3doZXJlIFRydXN0IEFuY2hvcjAe
Fw0xNTAzMjExNTA3MTFaFw0yMzA2MDcxNTA3MTFaMFQxCzAJBgNVBAYTAk5OMTEw
LwYDVQQKDChFZGVsIEN1cmwgQXJjdGljIElsbHVkaXVtIFJlc2VhcmNoIENsb3Vk
MRIwEAYDVQQDDAlsb2NhbGhvc3QwgZ8wDQYJKoZIhvcNAQEBBQADgY0AMIGJAoGB
ALpfS2l0MZlN9LS3KmW4tzHBOM82N7teGONSH1KqWiUvDGaIMrDvsiyQOF5ubw7k
Oz/wLvF6PV7DZIY/aLfPC7PqCsqUFtQragLjobPH0dAGuP/f3OAyKufdYsxxxOjP
nd5cdWmdts7iQtinvVBUeC1VZ38Ae4+cEdGezr4e/s83AgMBAAGjgYYwgYMwFAYD
VR0RBA0wC4IJbG9jYWxob3N0MAsGA1UdDwQEAwIDqDATBgNVHSUEDDAKBggrBgEF
BQcDATAdBgNVHQ4EFgQUfkKNrC6TrUzgCazGCPGC4Le3xn8wHwYDVR0jBBgwFoAU
Esq6S0YEp3WKLOgOVJS8EmWme84wCQYDVR0TBAIwADANBgkqhkiG9w0BAQUFAAOC
AQEAAP7E/EsouLw5jG/xctN22ign4peUu60vkcTb3zNLSE6XW0xMvvzktxlcuINu
7yyw1Xz8Dct+Ke39Te8FHIkVMXibGCnTN4PHOfR4J7cAddH78CmIeeTpp9RlBL/V
odwFshfEqdphECJfj1D8H6v2Od2rNaaUVGNcbSXw3DoKcE5J7776LArNzqYtJs34
JIl3LOpuGbZcjBoI6qifLBvH/BNs/qeQCOWYgzBShqyDC8slkiGUgBPX6NBCVoNV
0wmb6MWWghVka4N365nlUtwbNimgydqL0w13JPLD3y7Ek+A0R6mbVNN11cfeiKHv
e0Av3OkojGm+63FKwjBQmTZSaQ==
-----END CERTIFICATE-----
