extensions = x509v3
[ x509v3 ]
subjectAltName = DNS:localhost.nn
keyUsage	= keyEncipherment,digitalSignature,keyAgreement
extendedKeyUsage = serverAuth
subjectKeyIdentifier = hash
authorityKeyIdentifier = keyid
basicConstraints = CA:false
authorityInfoAccess     = @issuer_info
crlDistributionPoints   = @crl_info

[ crl_ext ]
authorityKeyIdentifier  = keyid:always
authorityInfoAccess     = @issuer_info

[ issuer_info ]
caIssuers;URI.0         = http://test.curl.se/ca/EdelCurlRoot.cer

[ crl_info ]
URI.0                   = http://test.curl.se/ca/EdelCurlRoot.crl

[ req ]
default_bits                    = 1024
distinguished_name              = req_DN
default_md			= sha256
string_mask			= utf8only
[ req_DN ]
countryName                     = "Country Name is Northern Nowhere"
countryName_value            = NN
organizationName              = "Organization Name"
organizationName_value     = Edel Curl Arctic Illudium Research Cloud
commonName                      = "Common Name"
commonName_value              = localhost.nn 

[something]
# The key
# the certificate
# some dhparam
-----BEGIN RSA PRIVATE KEY-----
MIIEpQIBAAKCAQEAzWe5JZcVaAJgGVlK0R4zEfqtG6cfNDQlJK9ouLKnvQ/YNCKF
iEpOJch5nvKjLQf2LCgSlQhjLAxik/Xty3dpxPNY+kHQQbuDKUlEuxy94A4IE3nz
1vuOkGkwZZe0FIxOI4OWcT3U6QVFfLD2s0DnuOuYZUUl6GzduPc3alFOPkDhACGP
rysCRLkfBrzuouBIWkfD3Ek7w+ftab3YOs66n4wxj8OKNnRa8cGMqzDxn3hwMr8b
bs0ZZ2/EOZqFPrSHKeRnLt87SGygWFL44pcWKnyzM2ts0iYfJZQOjtoviuNbjY14
x8v8Pqo3CGOVgP9wFswrK11WVTNUODdm28cQmwIDAQABAoIBAQC2VM9eFdoTpKAn
gELQlG0jFZEajeQ+E9ew0+Ayq6wIQItb5BUCoWrzURzcwmekrn+QPNYZ4wMdc7UB
wHmgdlS2VolyRH+YCdppCLfxHJdTz0DOASA5gr3PZQBn/h0FbHJkRgeCaC+Z1WsU
P4YOIpxPYxq5MoNu6Ux8Rz6yqo+444kXhyQxB0PMpXrvKaaSt02ofTWM3J7NOQmI
N91Zr0L8JxB2Fj7Hdawc6wVuyqaIS2WO0cHYbJ+RI8RkQfCqrwVtPxUAcA1u6i6c
jGondiq0OUUTEj6Mf8s4X9GDCeouAuLHXdwLy1DadV8Uw5nIIqE00Laloa+TiNVA
jHNILhjhAoGBAO+JOfytZGIdvCXvp1uVk3UYgGPWoODtYvALM7ev3pJQ2HkNRYkq
vuR3KdTJ83KH+QljRMl0E+AWLssKdbk9hESCEog1v6v/rbTOKXD5oDivJnKtQOX2
4fuSt+U4pEjcBMl8Az2afv8PE3E+/sg3aYWXPVkIPzlvlVeDRkDlux1RAoGBANuF
8cxBxCPbEJnlOC5luF9HIoOVFTh+HSSdynOMF772L3lHLu+rXcnvu9lwYlzP4Avf
c0bHfryXGOnDv2jK0k8Sl3h8u9F0cdD6t+/yktl5wLriIY9piIhzSmCV+x9ZTjVL
tSOGlMoUTOT1mAxDrsXkkDNY8pqkBXCWmyv4LeQrAoGBAOQ4Ybg919unqwCWAmU+
8Nxq+MCm2GcVpeNBOQg1FyFex7EmFO9oe7IfWwqzUzD3Hi50lzA9WUZyvCiVka5p
TyEasN94HmOY2f7fQhqyq5X2QvKV4bR48byIgI9z1QraHfF+J3RFQ+Rtj7+hHozS
RsaSX0/5jIuDpc1YdNIWT53RAoGAEJV64dpqDedjxqyJZP/sQM5n7hbaJo1oeDav
b7E6rgN9LKVTB2ojyLiisVeLJsXRgDQeSk+R5H9ps2dFU45W+wBFjyWlLrqkSoxW
Tvs9Ws6W38drj6ECXoSPLuLFuOWPQfl5MrjdDrMf6AAhv3NxhaOxvR9QHJydiJbo
HBdAqEcCgYEA3yr+4G5HKeZ+3lpMhXY07+1dJeXkKQmNBbjFBslKemTNIX3kMWgE
qSTIZyYCVy5VHok9s4TtiWw0EoZMIDIc+RnQNOR8gxhsSGu6wtI8MGUmXyGbpDJ3
COywieQ8FqTeop+lG5i7eArTHSoV70rOr0F918KpMuAE3MoVFoBmHGY=
-----END RSA PRIVATE KEY-----
Certificate:
    Data:
        Version: 3 (0x2)
        Serial Number: 16693795668348 (0xf2ed3c2c17c)
    Signature Algorithm: sha256WithRSAEncryption
        Issuer:
            countryName               = NN
            organizationName          = Edel Curl Arctic Illudium Research Cloud
            commonName                = Northern Nowhere Trust Anchor
        Validity
            Not Before: Nov 25 12:32:46 2022 GMT
            Not After : Feb 11 12:32:46 2031 GMT
        Subject:
            countryName               = NN
            organizationName          = Edel Curl Arctic Illudium Research Cloud
            commonName                = localhost.nn
        Subject Public Key Info:
            Public Key Algorithm: rsaEncryption
                Public-Key: (2048 bit)
                Modulus:
                    00:cd:67:b9:25:97:15:68:02:60:19:59:4a:d1:1e:
                    33:11:fa:ad:1b:a7:1f:34:34:25:24:af:68:b8:b2:
                    a7:bd:0f:d8:34:22:85:88:4a:4e:25:c8:79:9e:f2:
                    a3:2d:07:f6:2c:28:12:95:08:63:2c:0c:62:93:f5:
                    ed:cb:77:69:c4:f3:58:fa:41:d0:41:bb:83:29:49:
                    44:bb:1c:bd:e0:0e:08:13:79:f3:d6:fb:8e:90:69:
                    30:65:97:b4:14:8c:4e:23:83:96:71:3d:d4:e9:05:
                    45:7c:b0:f6:b3:40:e7:b8:eb:98:65:45:25:e8:6c:
                    dd:b8:f7:37:6a:51:4e:3e:40:e1:00:21:8f:af:2b:
                    02:44:b9:1f:06:bc:ee:a2:e0:48:5a:47:c3:dc:49:
                    3b:c3:e7:ed:69:bd:d8:3a:ce:ba:9f:8c:31:8f:c3:
                    8a:36:74:5a:f1:c1:8c:ab:30:f1:9f:78:70:32:bf:
                    1b:6e:cd:19:67:6f:c4:39:9a:85:3e:b4:87:29:e4:
                    67:2e:df:3b:48:6c:a0:58:52:f8:e2:97:16:2a:7c:
                    b3:33:6b:6c:d2:26:1f:25:94:0e:8e:da:2f:8a:e3:
                    5b:8d:8d:78:c7:cb:fc:3e:aa:37:08:63:95:80:ff:
                    70:16:cc:2b:2b:5d:56:55:33:54:38:37:66:db:c7:
                    10:9b
                Exponent: 65537 (0x10001)
        X509v3 extensions:
            X509v3 Subject Alternative Name: 
                DNS:localhost.nn
            X509v3 Key Usage: 
                Digital Signature, Key Encipherment, Key Agreement
            X509v3 Extended Key Usage: 
                TLS Web Server Authentication
            X509v3 Subject Key Identifier: 
                17:E7:2A:D5:F1:53:08:2E:A5:6B:02:E8:E2:49:14:9F:92:84:0D:2B
            X509v3 Authority Key Identifier: 
                keyid:52:40:EE:E1:4F:95:58:29:CA:84:67:8C:0F:8C:CC:FE:8F:A9:FA:A8

            X509v3 Basic Constraints: 
                CA:FALSE
            Authority Information Access: 
                CA Issuers - URI:http://test.curl.se/ca/EdelCurlRoot.cer

            X509v3 CRL Distribution Points: 

                Full Name:
                  URI:http://test.curl.se/ca/EdelCurlRoot.crl

    Signature Algorithm: sha256WithRSAEncryption
         3a:ef:ac:65:27:49:37:3a:af:e0:e3:21:62:74:5d:12:d7:bf:
         5c:54:27:76:d6:97:a0:b4:37:fa:ba:a9:39:61:53:9d:d3:e8:
         e7:57:ed:ed:89:e3:4a:5c:ac:88:78:cd:11:7c:fe:95:ed:8c:
         89:91:a9:aa:af:8b:4b:f5:98:b5:07:60:9c:4c:9b:53:8a:73:
         62:1e:3c:26:2d:cc:a1:29:47:2f:3a:6f:b4:03:31:24:d2:64:
         ca:20:d6:5e:54:d2:80:7f:cb:d7:aa:6f:27:33:ee:66:c0:69:
         3c:1a:a0:23:80:d7:2a:e3:3c:06:ac:5b:c4:04:57:6e:7d:61:
         d8:cd:72:17:ef:18:98:5b:1b:b9:1d:08:82:cb:4f:b2:0e:46:
         4e:68:3e:dc:6c:85:38:7c:01:b1:5f:6e:be:de:81:8e:3f:8d:
         f2:8f:92:54:13:6c:79:d4:0f:5b:27:cd:2c:27:80:8d:10:58:
         75:9e:20:ed:54:02:bf:42:81:39:45:77:81:a7:04:34:ec:4f:
         ca:c9:3f:11:4f:8f:ef:e8:e4:02:b7:84:f0:12:93:81:5c:22:
         35:6b:0e:3d:2f:0f:97:f4:1d:88:c6:c1:ff:ca:44:0b:94:87:
         ab:c9:39:18:7e:ce:33:ae:79:f9:ef:9c:b4:5e:04:5e:53:51:
         3b:87:7f:96
-----BEGIN CERTIFICATE-----
MIIESjCCAzKgAwIBAgIGDy7TwsF8MA0GCSqGSIb3DQEBCwUAMGgxCzAJBgNVBAYT
Ak5OMTEwLwYDVQQKDChFZGVsIEN1cmwgQXJjdGljIElsbHVkaXVtIFJlc2VhcmNo
IENsb3VkMSYwJAYDVQQDDB1Ob3J0aGVybiBOb3doZXJlIFRydXN0IEFuY2hvcjAe
Fw0yMjExMjUxMjMyNDZaFw0zMTAyMTExMjMyNDZaMFcxCzAJBgNVBAYTAk5OMTEw
LwYDVQQKDChFZGVsIEN1cmwgQXJjdGljIElsbHVkaXVtIFJlc2VhcmNoIENsb3Vk
MRUwEwYDVQQDDAxsb2NhbGhvc3Qubm4wggEiMA0GCSqGSIb3DQEBAQUAA4IBDwAw
ggEKAoIBAQDNZ7kllxVoAmAZWUrRHjMR+q0bpx80NCUkr2i4sqe9D9g0IoWISk4l
yHme8qMtB/YsKBKVCGMsDGKT9e3Ld2nE81j6QdBBu4MpSUS7HL3gDggTefPW+46Q
aTBll7QUjE4jg5ZxPdTpBUV8sPazQOe465hlRSXobN249zdqUU4+QOEAIY+vKwJE
uR8GvO6i4EhaR8PcSTvD5+1pvdg6zrqfjDGPw4o2dFrxwYyrMPGfeHAyvxtuzRln
b8Q5moU+tIcp5Gcu3ztIbKBYUvjilxYqfLMza2zSJh8llA6O2i+K41uNjXjHy/w+
qjcIY5WA/3AWzCsrXVZVM1Q4N2bbxxCbAgMBAAGjggEJMIIBBTAXBgNVHREEEDAO
ggxsb2NhbGhvc3Qubm4wCwYDVR0PBAQDAgOoMBMGA1UdJQQMMAoGCCsGAQUFBwMB
MB0GA1UdDgQWBBQX5yrV8VMILqVrAujiSRSfkoQNKzAfBgNVHSMEGDAWgBRSQO7h
T5VYKcqEZ4wPjMz+j6n6qDAJBgNVHRMEAjAAMEMGCCsGAQUFBwEBBDcwNTAzBggr
BgEFBQcwAoYnaHR0cDovL3Rlc3QuY3VybC5zZS9jYS9FZGVsQ3VybFJvb3QuY2Vy
MDgGA1UdHwQxMC8wLaAroCmGJ2h0dHA6Ly90ZXN0LmN1cmwuc2UvY2EvRWRlbEN1
cmxSb290LmNybDANBgkqhkiG9w0BAQsFAAOCAQEAOu+sZSdJNzqv4OMhYnRdEte/
XFQndtaXoLQ3+rqpOWFTndPo51ft7YnjSlysiHjNEXz+le2MiZGpqq+LS/WYtQdg
nEybU4pzYh48Ji3MoSlHLzpvtAMxJNJkyiDWXlTSgH/L16pvJzPuZsBpPBqgI4DX
KuM8BqxbxARXbn1h2M1yF+8YmFsbuR0IgstPsg5GTmg+3GyFOHwBsV9uvt6Bjj+N
8o+SVBNsedQPWyfNLCeAjRBYdZ4g7VQCv0KBOUV3gacENOxPysk/EU+P7+jkAreE
8BKTgVwiNWsOPS8Pl/QdiMbB/8pEC5SHq8k5GH7OM655+e+ctF4EXlNRO4d/lg==
-----END CERTIFICATE-----
