Certificate:
    Data:
        Version: 3 (0x2)
        Serial Number:
            bd:fe:26:8f:33:6f:f0:67
    Signature Algorithm: sha256WithRSAEncryption
        Issuer:
            countryName               = NN
            organizationName          = Edel Curl Arctic Illudium Research Cloud
            commonName                = Northern Nowhere Trust Anchor
        Validity
            Not Before: Mar  6 09:58:52 2025 GMT
            Not After : Dec 31 09:58:52 2025 GMT
        Subject:
            countryName               = NN
            organizationName          = Edel Curl Arctic Illudium Research Cloud
            commonName                = localhost.nn
        Subject Public Key Info:
            Public Key Algorithm: rsaEncryption
                RSA Public-Key: (2048 bit)
                Modulus:
                    00:d1:26:7b:2a:8e:5c:43:22:f3:ef:04:f7:89:cf:
                    a6:6d:5d:9f:8b:7e:91:49:02:79:bc:16:51:8a:cd:
                    46:ff:5f:63:15:91:79:bd:88:a0:dd:1a:18:3f:68:
                    7f:29:17:28:82:8e:f2:d1:ab:9b:c1:a1:88:c4:f2:
                    ca:55:3d:1d:47:23:3f:59:ca:01:f0:80:a1:e2:2e:
                    2d:c7:41:17:ac:10:c9:a7:86:b6:4d:a3:c4:58:e6:
                    5b:f2:25:ba:58:40:1a:98:c1:c6:7c:4a:7b:c6:3d:
                    d6:eb:7a:5f:73:cc:2d:f9:ae:87:ac:24:68:30:a5:
                    c3:24:b3:e3:28:62:b9:ae:95:22:d4:c2:87:f0:5f:
                    e5:8f:c4:30:85:62:bd:25:35:70:c0:c5:5b:70:2b:
                    d2:e7:b8:4b:4f:3a:9a:bb:85:9a:71:bc:61:68:00:
                    dc:61:8b:49:e6:8f:42:74:f3:dd:1b:3e:db:cf:c1:
                    73:ec:0e:fc:a9:12:cb:a2:11:08:60:29:ca:72:a0:
                    0b:45:33:29:44:cb:37:7d:79:3f:bf:c4:be:6d:e4:
                    28:ec:c9:08:1c:da:33:1c:dd:62:e5:ce:84:2f:5c:
                    03:e5:46:c1:80:6e:0e:c4:f0:65:85:16:59:c5:37:
                    95:2e:d1:6d:11:02:0e:9a:3c:4d:53:bc:75:78:47:
                    2f:b1
                Exponent: 65537 (0x10001)
        X509v3 extensions:
            X509v3 Subject Alternative Name: 
                DNS:localhost.nn
            X509v3 Key Usage: 
                Digital Signature, Key Encipherment, Key Agreement
            X509v3 Extended Key Usage: 
                TLS Web Server Authentication
            X509v3 Subject Key Identifier: 
                4C:E1:06:FE:1F:65:E7:76:14:39:D0:23:D6:D6:D1:FA:DB:A1:30:BC
            X509v3 Authority Key Identifier: 
                keyid:7B:72:9A:5B:F3:53:C0:55:90:F4:F0:54:C7:62:60:59:C0:AA:0A:69

            X509v3 Basic Constraints: 
                CA:FALSE
            Authority Information Access: 
                CA Issuers - URI:http://test.curl.se/ca/EdelCurlRoot.cer

            X509v3 CRL Distribution Points: 

                Full Name:
                  URI:http://test.curl.se/ca/EdelCurlRoot.crl

    Signature Algorithm: sha256WithRSAEncryption
         89:0b:1d:b6:f8:c5:82:0b:9a:bd:b0:42:46:96:38:22:1f:55:
         dd:6d:9e:79:79:d3:62:88:7d:60:58:15:32:e0:d2:f3:8d:da:
         92:80:1f:42:a9:85:ac:62:44:e9:b6:f9:f9:ec:92:8d:3e:0f:
         cd:60:d8:87:6c:7a:cf:c8:a1:40:fb:43:19:5f:d1:e2:9c:7e:
         95:93:b5:45:78:99:11:dc:24:2a:63:16:25:e2:7f:0c:2b:d7:
         16:ab:02:a1:27:52:61:76:84:cb:d5:b1:e7:34:34:bd:ec:a7:
         4a:4d:9d:e2:f9:48:b6:6f:2f:8f:21:d5:34:3a:1d:b1:bf:18:
         c1:8f:c8:17:ae:db:cd:2b:45:10:b1:53:5c:f4:ba:da:38:a9:
         97:a1:5e:bc:59:96:25:35:32:b2:40:b6:d1:af:ee:da:6a:48:
         e0:04:76:ca:c1:bc:e1:ce:cf:5f:01:c5:d2:e2:3d:1c:77:9d:
         ce:71:49:f9:d1:f8:60:a5:2d:27:eb:90:37:32:95:86:47:d0:
         2e:e3:4f:1e:ad:b1:65:4b:2a:15:32:6f:71:a4:51:4d:38:f8:
         54:8e:8a:97:d4:c8:8a:26:1f:82:c1:14:8a:7f:71:2a:2a:23:
         a2:05:a2:ce:c3:30:c2:34:33:7d:9e:6a:7d:39:98:dd:0a:68:
         3d:cd:bc:ca
-----BEGIN CERTIFICATE-----
MIIETTCCAzWgAwIBAgIJAL3+Jo8zb/BnMA0GCSqGSIb3DQEBCwUAMGgxCzAJBgNV
BAYTAk5OMTEwLwYDVQQKDChFZGVsIEN1cmwgQXJjdGljIElsbHVkaXVtIFJlc2Vh
cmNoIENsb3VkMSYwJAYDVQQDDB1Ob3J0aGVybiBOb3doZXJlIFRydXN0IEFuY2hv
cjAeFw0yNTAzMDYwOTU4NTJaFw0yNTEyMzEwOTU4NTJaMFcxCzAJBgNVBAYTAk5O
MTEwLwYDVQQKDChFZGVsIEN1cmwgQXJjdGljIElsbHVkaXVtIFJlc2VhcmNoIENs
b3VkMRUwEwYDVQQDDAxsb2NhbGhvc3Qubm4wggEiMA0GCSqGSIb3DQEBAQUAA4IB
DwAwggEKAoIBAQDRJnsqjlxDIvPvBPeJz6ZtXZ+LfpFJAnm8FlGKzUb/X2MVkXm9
iKDdGhg/aH8pFyiCjvLRq5vBoYjE8spVPR1HIz9ZygHwgKHiLi3HQResEMmnhrZN
o8RY5lvyJbpYQBqYwcZ8SnvGPdbrel9zzC35roesJGgwpcMks+MoYrmulSLUwofw
X+WPxDCFYr0lNXDAxVtwK9LnuEtPOpq7hZpxvGFoANxhi0nmj0J0890bPtvPwXPs
DvypEsuiEQhgKcpyoAtFMylEyzd9eT+/xL5t5CjsyQgc2jMc3WLlzoQvXAPlRsGA
bg7E8GWFFlnFN5Uu0W0RAg6aPE1TvHV4Ry+xAgMBAAGjggEJMIIBBTAXBgNVHREE
EDAOggxsb2NhbGhvc3Qubm4wCwYDVR0PBAQDAgOoMBMGA1UdJQQMMAoGCCsGAQUF
BwMBMB0GA1UdDgQWBBRM4Qb+H2XndhQ50CPW1tH626EwvDAfBgNVHSMEGDAWgBR7
cppb81PAVZD08FTHYmBZwKoKaTAJBgNVHRMEAjAAMEMGCCsGAQUFBwEBBDcwNTAz
BggrBgEFBQcwAoYnaHR0cDovL3Rlc3QuY3VybC5zZS9jYS9FZGVsQ3VybFJvb3Qu
Y2VyMDgGA1UdHwQxMC8wLaAroCmGJ2h0dHA6Ly90ZXN0LmN1cmwuc2UvY2EvRWRl
bEN1cmxSb290LmNybDANBgkqhkiG9w0BAQsFAAOCAQEAiQsdtvjFgguavbBCRpY4
Ih9V3W2eeXnTYoh9YFgVMuDS843akoAfQqmFrGJE6bb5+eySjT4PzWDYh2x6z8ih
QPtDGV/R4px+lZO1RXiZEdwkKmMWJeJ/DCvXFqsCoSdSYXaEy9Wx5zQ0veynSk2d
4vlItm8vjyHVNDodsb8YwY/IF67bzStFELFTXPS62jipl6FevFmWJTUyskC20a/u
2mpI4AR2ysG84c7PXwHF0uI9HHedznFJ+dH4YKUtJ+uQNzKVhkfQLuNPHq2xZUsq
FTJvcaRRTTj4VI6Kl9TIiiYfgsEUin9xKiojogWizsMwwjQzfZ5qfTmY3QpoPc28
yg==
-----END CERTIFICATE-----
