extensions = x509v3

[ x509v3 ]
subjectAltName          = DNS:localhost1,DNS:localhost2,DNS:localhost
keyUsage                = keyEncipherment,digitalSignature,keyAgreement
extendedKeyUsage        = serverAuth
subjectKeyIdentifier    = hash
authorityKeyIdentifier  = keyid
basicConstraints        = CA:false
authorityInfoAccess     = @issuer_info
crlDistributionPoints   = @crl_info

[ crl_ext ]
authorityKeyIdentifier  = keyid:always
authorityInfoAccess     = @issuer_info

[ issuer_info ]
caIssuers;URI.0         = http://test.curl.se/ca/EdelCurlRoot.cer

[ crl_info ]
URI.0                   = http://test.curl.se/ca/EdelCurlRoot.crl

[ req ]
default_bits            = 1024
distinguished_name      = req_DN
default_md              = sha256
string_mask             = utf8only

[ req_DN ]
countryName             = "Country Name is Northern Nowhere"
countryName_value       = NN
organizationName        = "Organization Name"
organizationName_value  = Edel Curl Arctic Illudium Research Cloud
commonName              = "Common Name"
commonName_value        = localhost.nn
-----BEGIN RSA PRIVATE KEY-----
MIIEpAIBAAKCAQEAzULHYZfjVt0QytazSwlo7Su5XEYDrucFLNGpPXTCck3Fh5bV
1xKvthyVUUO6FDW8gCyq+5pcdEsYfZF1/aBlHbLnupGZsouLMquMgVhOVYfqEL8Y
OBe80vgO17NYSGGMX7wY/aa6d/y0EbkQYvQFMrJOHHmw2hy/hdStwNfakNb54XB3
kN56AwOvkoxx+cLhdWMWjKWE7cvWhuyKmsrhIKiuKJPDRpCJReTtv83aFJesPNeR
29Y7e+vbF/KcYgVa/j1WQGkEZXAHT7pQMvRJfRD6CBkx5v+qJAjahQ6pMiYVslTP
CxkQqAXo9Vc7VgwgNNwk3C7DSldxlDZcZ1bV3wIDAQABAoIBAAPv2PUlPaYH3W+W
iJ/S0WFjKk37xcxQAAhpCQ71s1kP5s7/9KAIarhaef6yBtqmYTQwJyNmRYmxewnF
hXbU4budF9a7PjBvfr79DVfZwr7fOX0SvTsuMV/2hApdFT9mJ5Qafnw2+3KbtTR1
0TukpIjhZKAlMWAtlvrRJngBa97FR/8IHbO/ZhnVwGpFtW35HeUNNnay42pMnRIi
ayNdYgRFvEMLjATgL0T6IN9ZcP1UmUK0zGdxO6am57DbdEFA19luYWrOXgQDWOwD
lmmr3NvcokuxiiLluxRI7gu0mJpdymGUMn1fYTD3s1mlXdSQ6MZTK/+uUcEybyuu
+zs22xkCgYEA7dCp0b7Puifq69aEiFhdxRcSJvoVvK+OrI6/460CxoLPOA3VC0n3
PHDAnaUfFNR7cu5JHN47XzLEpwc7e4nZGOimDDWKxDUcWxaZCRpB5UjV3m4sv2Qa
JmEZYRKzzkU5GIB285USKkOeF+cAZgEGa7GUsY0ZIoCUlzOBzkKjIz0CgYEA3PTa
DLJEI5n0qnnQ/DpvhjywwSf53ZbTL4UB0/tSG4Bei7yxd791oVF/LPo8pvOePe3O
YjR2lxCgT5uU5AKDm29bpdrZMg8OcRablxT5kHRIhGtRs2PDgiEGN4kIt7M1vzUB
5Boz/18h5Y4XZfGwgYzcqrv6P7207eezWcNVv0sCgYEAiqOAvLQeaYnn3EEc1led
os6GWI6mqW83H8XAfDxaR9vubeEyd/hQ171rrPucGQqeRSxBF0E/H4p7NlxzAtwj
4e+PDcMQ+L11oGyWHsZd8Ar8E0XrdFApJoKoxvyeMfwNAwmxTuNyyYzN12VlyBGE
6reF1dRJ+OE4vsTaQaJ7dIkCgYEAxgmDAcwpPEt5ue3SvK7XVFZDCex9i/jpsXah
69AeiF2m39GwsiZdFMhJlxN1lyFU3CavSt/Axqb1OES2zyHduUu2tdGPx8ks5Xkg
3OnEwI8oi97wbDtneNOGkfH1aUhrTMQCvOIrZqBqbifLmuhjjcml4jT3F3g9mNmJ
q1NjID8CgYBHp+E3t1IdzDH/6dG1JXBMDwxEICMktwmvpWwwKGZXtWTfmbf77pn2
n4QZsEUuKnyjd8+ChuWbQ2Y2HQouovDbQc9wawvwouTvd8BV1CgCz3hjFeH06dyl
ujMM9rPJ1u5op1cedYAwIAW2X8dBsl29u2p+hKboHpji+6objz8iRQ==
-----END RSA PRIVATE KEY-----
Certificate:
    Data:
        Version: 3 (0x2)
        Serial Number:
            bd:fe:26:8f:33:6f:f0:6a
    Signature Algorithm: sha256WithRSAEncryption
        Issuer:
            countryName               = NN
            organizationName          = Edel Curl Arctic Illudium Research Cloud
            commonName                = Northern Nowhere Trust Anchor
        Validity
            Not Before: Mar  6 09:58:52 2025 GMT
            Not After : Dec 31 09:58:52 2025 GMT
        Subject:
            countryName               = NN
            organizationName          = Edel Curl Arctic Illudium Research Cloud
            commonName                = localhost.nn
        Subject Public Key Info:
            Public Key Algorithm: rsaEncryption
                RSA Public-Key: (2048 bit)
                Modulus:
                    00:cd:42:c7:61:97:e3:56:dd:10:ca:d6:b3:4b:09:
                    68:ed:2b:b9:5c:46:03:ae:e7:05:2c:d1:a9:3d:74:
                    c2:72:4d:c5:87:96:d5:d7:12:af:b6:1c:95:51:43:
                    ba:14:35:bc:80:2c:aa:fb:9a:5c:74:4b:18:7d:91:
                    75:fd:a0:65:1d:b2:e7:ba:91:99:b2:8b:8b:32:ab:
                    8c:81:58:4e:55:87:ea:10:bf:18:38:17:bc:d2:f8:
                    0e:d7:b3:58:48:61:8c:5f:bc:18:fd:a6:ba:77:fc:
                    b4:11:b9:10:62:f4:05:32:b2:4e:1c:79:b0:da:1c:
                    bf:85:d4:ad:c0:d7:da:90:d6:f9:e1:70:77:90:de:
                    7a:03:03:af:92:8c:71:f9:c2:e1:75:63:16:8c:a5:
                    84:ed:cb:d6:86:ec:8a:9a:ca:e1:20:a8:ae:28:93:
                    c3:46:90:89:45:e4:ed:bf:cd:da:14:97:ac:3c:d7:
                    91:db:d6:3b:7b:eb:db:17:f2:9c:62:05:5a:fe:3d:
                    56:40:69:04:65:70:07:4f:ba:50:32:f4:49:7d:10:
                    fa:08:19:31:e6:ff:aa:24:08:da:85:0e:a9:32:26:
                    15:b2:54:cf:0b:19:10:a8:05:e8:f5:57:3b:56:0c:
                    20:34:dc:24:dc:2e:c3:4a:57:71:94:36:5c:67:56:
                    d5:df
                Exponent: 65537 (0x10001)
        X509v3 extensions:
            X509v3 Subject Alternative Name: 
                DNS:localhost1, DNS:localhost2, DNS:localhost
            X509v3 Key Usage: 
                Digital Signature, Key Encipherment, Key Agreement
            X509v3 Extended Key Usage: 
                TLS Web Server Authentication
            X509v3 Subject Key Identifier: 
                B4:2F:EA:21:DD:BB:78:1F:F5:32:4E:B9:E6:EB:FE:7E:9A:F2:D2:0B
            X509v3 Authority Key Identifier: 
                keyid:7B:72:9A:5B:F3:53:C0:55:90:F4:F0:54:C7:62:60:59:C0:AA:0A:69

            X509v3 Basic Constraints: 
                CA:FALSE
            Authority Information Access: 
                CA Issuers - URI:http://test.curl.se/ca/EdelCurlRoot.cer

            X509v3 CRL Distribution Points: 

                Full Name:
                  URI:http://test.curl.se/ca/EdelCurlRoot.crl

    Signature Algorithm: sha256WithRSAEncryption
         5b:a4:36:70:a6:7a:b1:eb:70:bd:40:72:fe:e8:55:d3:2a:53:
         db:a9:82:25:12:6c:b9:a4:4a:d8:04:5d:9c:b5:90:c8:49:3b:
         98:47:9a:f7:99:f4:66:fa:57:c1:7f:68:55:2f:5e:8e:c5:7c:
         42:e3:82:97:e6:95:73:f0:0a:1c:91:ca:ac:53:2e:95:f1:a8:
         34:40:e5:5e:23:d8:82:99:f5:ec:e5:8c:b7:9a:52:29:bb:39:
         65:96:2c:e8:d9:03:b6:90:ff:24:ad:b4:06:8e:53:a4:bf:42:
         05:52:5f:42:7a:86:b7:82:c2:2a:59:62:12:0e:ac:ca:5a:3f:
         be:bd:ad:39:55:8a:1c:cb:ad:72:85:cb:1f:57:90:40:44:d9:
         f3:ee:cf:8c:9d:51:bf:bc:52:17:fd:dd:5b:6c:38:40:d2:e4:
         4e:47:43:9d:61:b8:43:4f:8b:33:6d:17:c6:23:c2:c0:7e:7a:
         4a:08:c2:a3:f6:4b:be:ad:4f:34:48:d9:89:48:ea:73:5e:c9:
         d7:15:5a:ad:48:6c:81:d0:65:39:e5:22:a3:07:9e:6d:5e:5b:
         5f:98:b6:c9:cf:d4:4e:d3:d8:64:f5:94:7b:72:fb:d8:0e:00:
         93:b0:e9:a8:84:c7:82:32:81:e1:0b:1c:16:53:67:cd:16:1b:
         86:e2:20:94
-----BEGIN CERTIFICATE-----
MIIEYjCCA0qgAwIBAgIJAL3+Jo8zb/BqMA0GCSqGSIb3DQEBCwUAMGgxCzAJBgNV
BAYTAk5OMTEwLwYDVQQKDChFZGVsIEN1cmwgQXJjdGljIElsbHVkaXVtIFJlc2Vh
cmNoIENsb3VkMSYwJAYDVQQDDB1Ob3J0aGVybiBOb3doZXJlIFRydXN0IEFuY2hv
cjAeFw0yNTAzMDYwOTU4NTJaFw0yNTEyMzEwOTU4NTJaMFcxCzAJBgNVBAYTAk5O
MTEwLwYDVQQKDChFZGVsIEN1cmwgQXJjdGljIElsbHVkaXVtIFJlc2VhcmNoIENs
b3VkMRUwEwYDVQQDDAxsb2NhbGhvc3Qubm4wggEiMA0GCSqGSIb3DQEBAQUAA4IB
DwAwggEKAoIBAQDNQsdhl+NW3RDK1rNLCWjtK7lcRgOu5wUs0ak9dMJyTcWHltXX
Eq+2HJVRQ7oUNbyALKr7mlx0Sxh9kXX9oGUdsue6kZmyi4syq4yBWE5Vh+oQvxg4
F7zS+A7Xs1hIYYxfvBj9prp3/LQRuRBi9AUysk4cebDaHL+F1K3A19qQ1vnhcHeQ
3noDA6+SjHH5wuF1YxaMpYTty9aG7IqayuEgqK4ok8NGkIlF5O2/zdoUl6w815Hb
1jt769sX8pxiBVr+PVZAaQRlcAdPulAy9El9EPoIGTHm/6okCNqFDqkyJhWyVM8L
GRCoBej1VztWDCA03CTcLsNKV3GUNlxnVtXfAgMBAAGjggEeMIIBGjAsBgNVHREE
JTAjggpsb2NhbGhvc3Qxggpsb2NhbGhvc3Qygglsb2NhbGhvc3QwCwYDVR0PBAQD
AgOoMBMGA1UdJQQMMAoGCCsGAQUFBwMBMB0GA1UdDgQWBBS0L+oh3bt4H/UyTrnm
6/5+mvLSCzAfBgNVHSMEGDAWgBR7cppb81PAVZD08FTHYmBZwKoKaTAJBgNVHRME
AjAAMEMGCCsGAQUFBwEBBDcwNTAzBggrBgEFBQcwAoYnaHR0cDovL3Rlc3QuY3Vy
bC5zZS9jYS9FZGVsQ3VybFJvb3QuY2VyMDgGA1UdHwQxMC8wLaAroCmGJ2h0dHA6
Ly90ZXN0LmN1cmwuc2UvY2EvRWRlbEN1cmxSb290LmNybDANBgkqhkiG9w0BAQsF
AAOCAQEAW6Q2cKZ6setwvUBy/uhV0ypT26mCJRJsuaRK2ARdnLWQyEk7mEea95n0
ZvpXwX9oVS9ejsV8QuOCl+aVc/AKHJHKrFMulfGoNEDlXiPYgpn17OWMt5pSKbs5
ZZYs6NkDtpD/JK20Bo5TpL9CBVJfQnqGt4LCKlliEg6sylo/vr2tOVWKHMutcoXL
H1eQQETZ8+7PjJ1Rv7xSF/3dW2w4QNLkTkdDnWG4Q0+LM20XxiPCwH56SgjCo/ZL
vq1PNEjZiUjqc17J1xVarUhsgdBlOeUioweebV5bX5i2yc/UTtPYZPWUe3L72A4A
k7DpqITHgjKB4QscFlNnzRYbhuIglA==
-----END CERTIFICATE-----
