extensions = x509v3
[ x509v3 ]
#subjectAltName = DNS:localhost\0h
subjectAltName = DER:30:0d:82:0b:6c:6f:63:61:6c:68:6f:73:74:00:68
keyUsage	= keyEncipherment,digitalSignature,keyAgreement
extendedKeyUsage = serverAuth
subjectKeyIdentifier = hash
authorityKeyIdentifier = keyid
basicConstraints = CA:false
authorityInfoAccess     = @issuer_info
crlDistributionPoints   = @crl_info

[ crl_ext ]
authorityKeyIdentifier  = keyid:always
authorityInfoAccess     = @issuer_info

[ issuer_info ]
caIssuers;URI.0         = http://test.curl.se/ca/EdelCurlRoot.cer

[ crl_info ]
URI.0                   = http://test.curl.se/ca/EdelCurlRoot.crl

[ req ]
default_bits                    = 1024
distinguished_name              = req_DN
default_md			= sha256
string_mask			= utf8only
[ req_DN ]
countryName                     = "Country Name is Northern Nowhere"
countryName_value            = NN
organizationName              = "Organization Name"
organizationName_value     = Edel Curl Arctic Illudium Research Cloud
commonName                      = "Common Name"
commonName_value              = localhost 

[something]
# The key
# the certificate
# some dhparam
-----BEGIN PRIVATE KEY-----
MIIEvgIBADANBgkqhkiG9w0BAQEFAASCBKgwggSkAgEAAoIBAQDfKZNYgh2iuAcq
so+TDt8VSXIGkxlKLcW9VpJa2vTTmgEc7kdXDp7Y1w3Ezkui8PwH7JHplQj06V3y
SfMLmPDYx9RnL/vylDsUyAbaOXCK+UtwqHRrP1vRpBzqvfGeweLnmIhP6Uu2yNae
AfO3ye7N4teWaBTXRMYRE59sBk5XmFPIQN6dRB9q9AGwVkdeO7U8KZuW85paeNER
USUOQ4JK099UWkYA3rCiLmVURECcZNPoP+is4wz7NgrFeTepou8GFEOsniDeMNLq
eX3v8gyTcI27FP9MVkHkKt6SCs5lLNP7KQ9P+RbXYlROTKgFNF3mIOOJvHsf3yFX
ZqkgzuazAgMBAAECggEAa31sIpKx0aHQmeleLJhaLbetu6r44HkBqPxdDHQwvweM
B7JiHHXHX2zejfBMEFUBIJP7iEYoBUeu37hs4CYvxEskbPt44NQzTQQ4AL7wDZCc
nMwXH11qTaU95HfPPQfo0mLvLYaS2J0Oexc3nEwgwXzFGQZTG4ld2fXYsUCsVZX8
PoHbkKWEHveQEFDmGezguc2UG3DrXaZv5gbMhVik048zX3P5cn0ic9TK9yEFZDXS
8Qiq/SHTHEnkZV5J8s12pcDyQdi1cN96MVZ1/feeg1Pc06q7PN7xvkmZHCQ1tOdl
b7STXNPrJ0P7OwbeB0Q3xNwqI25wicN1oaBvdR/PAQKBgQD4gN6+sR74FNC4q99T
fuFqwJ36W8GG0jc9joJTbITXGSdArQHm838Mippp0P3MrUTLqXI0nhjH8ePjF83R
KRWGoUvSc2Xe7LjzzEmg9CmtB+QD97Qir0468izqnlP1Ef16kbbIMLsoVgIht6YY
klUYs7x3AtDBvHV7EKlP63kUgQKBgQDl5QDW+KZRvQU/G7tWsOZ6iQ3Ed8Zt4uRk
EshPeCoz0S0ks8pzpa+YaAAUKsHvgiL7oLMFquuVHn7TctYBoe2/bwdj0/IW/1pP
oDJqRJIbamjYj6qKG7Ihx0yx+z7f7vbKCgC5ifzy0Xl60E9fRIf3/dVopU+3qtwG
qOphkrNRMwKBgQCrEixFIjGrnsjBGLC5DhOoJcmbXCcx5O1aVwyo2X/pg8td3rv8
fYvs2k3KorDVgkJl4dRZHKz6mC7FWtG5N4s2DzvfOMncWSJJ00ysnOlD0LbLdG5x
ojU8pxL8wNoTT7sr8bvevI1bCzqUc5TIPZSPWMxZMXr8o/xMKAAmoHfOAQKBgDBH
VlTO5Qa3XlmxdjcvcUd8bsK6sJY1FueZNi3SO3KkVAmoJDUDL4wfEx0pGY810ijr
x4zCJzUqsVGwhRbUrbwNEg053lZMC+g66Tt96P0O7LPF//d+93q2gvnBnKOkaHln
fl14iAFqUkujYXfNSYyf5uhSBxq4K/rOEGKrTzMXAoGBAL3Hz3s5Gvy44SMV0UHl
18gEqR0y9mXfgON9Rk0yE+fFYFRnFf4iHIxhodXPIGeu1CpqtXjEcG8JXVXniaao
qNGbVs2QoBUVW81sHG9h/ulHCAwjFvZhFYgDiRQPcVd3lNJM4gigjRyw/nRnQH+2
MVCJe5htDEMM58h8LepU4T8M
-----END PRIVATE KEY-----
Certificate:
    Data:
        Version: 3 (0x2)
        Serial Number: 16717980979573 (0xf3475515175)
        Signature Algorithm: sha256WithRSAEncryption
        Issuer:
            countryName               = NN
            organizationName          = Edel Curl Arctic Illudium Research Cloud
            commonName                = Northern Nowhere Trust Anchor
        Validity
            Not Before: Dec 23 12:21:37 2022 GMT
            Not After : Mar 11 12:21:37 2031 GMT
        Subject:
            countryName               = NN
            organizationName          = Edel Curl Arctic Illudium Research Cloud
            commonName                = localhost
        Subject Public Key Info:
            Public Key Algorithm: rsaEncryption
                Public-Key: (2048 bit)
                Modulus:
                    00:df:29:93:58:82:1d:a2:b8:07:2a:b2:8f:93:0e:
                    df:15:49:72:06:93:19:4a:2d:c5:bd:56:92:5a:da:
                    f4:d3:9a:01:1c:ee:47:57:0e:9e:d8:d7:0d:c4:ce:
                    4b:a2:f0:fc:07:ec:91:e9:95:08:f4:e9:5d:f2:49:
                    f3:0b:98:f0:d8:c7:d4:67:2f:fb:f2:94:3b:14:c8:
                    06:da:39:70:8a:f9:4b:70:a8:74:6b:3f:5b:d1:a4:
                    1c:ea:bd:f1:9e:c1:e2:e7:98:88:4f:e9:4b:b6:c8:
                    d6:9e:01:f3:b7:c9:ee:cd:e2:d7:96:68:14:d7:44:
                    c6:11:13:9f:6c:06:4e:57:98:53:c8:40:de:9d:44:
                    1f:6a:f4:01:b0:56:47:5e:3b:b5:3c:29:9b:96:f3:
                    9a:5a:78:d1:11:51:25:0e:43:82:4a:d3:df:54:5a:
                    46:00:de:b0:a2:2e:65:54:44:40:9c:64:d3:e8:3f:
                    e8:ac:e3:0c:fb:36:0a:c5:79:37:a9:a2:ef:06:14:
                    43:ac:9e:20:de:30:d2:ea:79:7d:ef:f2:0c:93:70:
                    8d:bb:14:ff:4c:56:41:e4:2a:de:92:0a:ce:65:2c:
                    d3:fb:29:0f:4f:f9:16:d7:62:54:4e:4c:a8:05:34:
                    5d:e6:20:e3:89:bc:7b:1f:df:21:57:66:a9:20:ce:
                    e6:b3
                Exponent: 65537 (0x10001)
        X509v3 extensions:
            X509v3 Subject Alternative Name: 
                0..localhost.h
            X509v3 Key Usage: 
                Digital Signature, Key Encipherment, Key Agreement
            X509v3 Extended Key Usage: 
                TLS Web Server Authentication
            X509v3 Subject Key Identifier: 
                6B:56:00:F3:01:BC:16:8B:EB:CF:75:A1:89:DB:26:B1:C4:ED:71:64
            X509v3 Authority Key Identifier: 
                87:CB:B1:33:2E:C1:67:7E:71:E3:E5:2B:4C:4D:A4:B3:6E:D2:5B:A9
            X509v3 Basic Constraints: 
                CA:FALSE
            Authority Information Access: 
                CA Issuers - URI:http://test.curl.se/ca/EdelCurlRoot.cer
            X509v3 CRL Distribution Points: 
                Full Name:
                  URI:http://test.curl.se/ca/EdelCurlRoot.crl
    Signature Algorithm: sha256WithRSAEncryption
    Signature Value:
        5a:b2:83:c0:94:ce:25:aa:a0:f4:b6:71:fb:16:b4:e0:10:3c:
        9c:a0:db:2a:fc:b7:f8:97:64:cc:19:92:56:63:a9:e6:50:d6:
        6d:79:b6:a3:62:23:d2:48:21:37:46:46:3e:9d:cd:1f:55:18:
        77:fd:7f:35:ea:d8:68:9c:1c:2f:c8:23:43:a2:cd:77:3c:5c:
        21:94:93:80:84:d0:6a:8a:5b:ae:11:be:79:3e:80:17:32:9e:
        73:0b:dd:0d:f5:f6:4f:3f:1b:a3:eb:aa:21:06:a7:ef:c7:bf:
        e5:87:67:2c:38:a3:c1:d4:f2:b4:ce:72:9d:2e:f8:b9:91:cb:
        83:1a:c9:be:74:bb:ac:78:5c:d9:3e:fd:1f:9d:ac:19:5e:b3:
        00:66:38:71:7e:06:2e:fe:1a:c0:ad:f7:82:1d:85:6d:3d:3c:
        9d:62:66:cd:1e:6d:f1:67:7a:05:4a:58:6e:7a:a7:1f:2f:7c:
        5f:c0:2c:19:df:de:c6:2d:13:c6:3b:ea:6d:98:d0:55:98:4c:
        00:a7:e2:2f:7d:86:24:49:2d:86:c3:75:d0:71:41:16:8c:7b:
        49:25:eb:d2:cd:9b:08:b4:5f:6e:aa:4a:2d:6c:5b:89:67:7f:
        3f:0c:43:43:bd:83:f7:ef:1e:ee:e7:6a:e7:3a:c1:c7:aa:1d:
        5b:34:1b:d1
-----BEGIN CERTIFICATE-----
MIIERjCCAy6gAwIBAgIGDzR1UVF1MA0GCSqGSIb3DQEBCwUAMGgxCzAJBgNVBAYT
Ak5OMTEwLwYDVQQKDChFZGVsIEN1cmwgQXJjdGljIElsbHVkaXVtIFJlc2VhcmNo
IENsb3VkMSYwJAYDVQQDDB1Ob3J0aGVybiBOb3doZXJlIFRydXN0IEFuY2hvcjAe
Fw0yMjEyMjMxMjIxMzdaFw0zMTAzMTExMjIxMzdaMFQxCzAJBgNVBAYTAk5OMTEw
LwYDVQQKDChFZGVsIEN1cmwgQXJjdGljIElsbHVkaXVtIFJlc2VhcmNoIENsb3Vk
MRIwEAYDVQQDDAlsb2NhbGhvc3QwggEiMA0GCSqGSIb3DQEBAQUAA4IBDwAwggEK
AoIBAQDfKZNYgh2iuAcqso+TDt8VSXIGkxlKLcW9VpJa2vTTmgEc7kdXDp7Y1w3E
zkui8PwH7JHplQj06V3ySfMLmPDYx9RnL/vylDsUyAbaOXCK+UtwqHRrP1vRpBzq
vfGeweLnmIhP6Uu2yNaeAfO3ye7N4teWaBTXRMYRE59sBk5XmFPIQN6dRB9q9AGw
VkdeO7U8KZuW85paeNERUSUOQ4JK099UWkYA3rCiLmVURECcZNPoP+is4wz7NgrF
eTepou8GFEOsniDeMNLqeX3v8gyTcI27FP9MVkHkKt6SCs5lLNP7KQ9P+RbXYlRO
TKgFNF3mIOOJvHsf3yFXZqkgzuazAgMBAAGjggEIMIIBBDAWBgNVHREEDzANggts
b2NhbGhvc3QAaDALBgNVHQ8EBAMCA6gwEwYDVR0lBAwwCgYIKwYBBQUHAwEwHQYD
VR0OBBYEFGtWAPMBvBaL6891oYnbJrHE7XFkMB8GA1UdIwQYMBaAFIfLsTMuwWd+
cePlK0xNpLNu0lupMAkGA1UdEwQCMAAwQwYIKwYBBQUHAQEENzA1MDMGCCsGAQUF
BzAChidodHRwOi8vdGVzdC5jdXJsLnNlL2NhL0VkZWxDdXJsUm9vdC5jZXIwOAYD
VR0fBDEwLzAtoCugKYYnaHR0cDovL3Rlc3QuY3VybC5zZS9jYS9FZGVsQ3VybFJv
b3QuY3JsMA0GCSqGSIb3DQEBCwUAA4IBAQBasoPAlM4lqqD0tnH7FrTgEDycoNsq
/Lf4l2TMGZJWY6nmUNZtebajYiPSSCE3RkY+nc0fVRh3/X816thonBwvyCNDos13
PFwhlJOAhNBqiluuEb55PoAXMp5zC90N9fZPPxuj66ohBqfvx7/lh2csOKPB1PK0
znKdLvi5kcuDGsm+dLuseFzZPv0fnawZXrMAZjhxfgYu/hrArfeCHYVtPTydYmbN
Hm3xZ3oFSlhueqcfL3xfwCwZ397GLRPGO+ptmNBVmEwAp+IvfYYkSS2Gw3XQcUEW
jHtJJevSzZsItF9uqkotbFuJZ38/DENDvYP37x7u52rnOsHHqh1bNBvR
-----END CERTIFICATE-----
