Certificate:
    Data:
        Version: 3 (0x2)
        Serial Number:
            bd:fe:26:8f:33:6f:f0:66
    Signature Algorithm: sha256WithRSAEncryption
        Issuer:
            countryName               = NN
            organizationName          = Edel Curl Arctic Illudium Research Cloud
            commonName                = Northern Nowhere Trust Anchor
        Validity
            Not Before: Mar  6 09:58:52 2025 GMT
            Not After : Dec 31 09:58:52 2025 GMT
        Subject:
            countryName               = NN
            organizationName          = Edel Curl Arctic Illudium Research Cloud
            commonName                = localhost
        Subject Public Key Info:
            Public Key Algorithm: rsaEncryption
                RSA Public-Key: (2048 bit)
                Modulus:
                    00:d2:da:a2:d9:56:13:a3:e7:67:10:47:0b:6b:51:
                    80:07:fb:0e:31:dc:0b:e6:db:ad:5d:8b:b6:33:d3:
                    eb:04:f5:37:03:c1:8f:7e:63:2c:96:9e:e6:f6:49:
                    5c:1f:fe:ad:da:dd:cc:57:55:73:9b:54:91:36:26:
                    3e:b1:99:b2:03:c1:92:db:6d:6f:56:d0:e6:2d:53:
                    d3:36:3f:b5:fc:a1:cd:13:99:03:46:89:1f:e1:47:
                    27:12:d5:10:88:e9:f2:67:57:0f:3c:4b:60:3d:e9:
                    1f:17:b8:e0:60:8b:92:56:e7:da:56:31:15:27:eb:
                    55:95:62:17:a5:49:07:eb:e4:f8:18:c4:99:87:44:
                    12:3f:27:ed:6c:ed:05:3e:a1:98:79:a7:39:46:10:
                    01:ea:b2:72:06:f1:5a:a3:06:5b:17:89:02:51:30:
                    2f:f3:68:b0:eb:82:eb:bf:a6:8b:84:11:9c:cf:8b:
                    20:4f:57:d0:4e:cf:fd:cf:f3:7f:0c:83:fa:0c:a9:
                    14:f1:3a:2a:2b:bc:d6:24:f4:f5:79:92:96:fd:4c:
                    c3:cf:a9:73:25:68:ec:2c:c2:00:45:c1:21:26:bf:
                    ff:65:83:76:cd:1d:eb:4f:bb:8f:32:40:51:8a:5f:
                    c6:f0:27:80:43:f9:92:1e:e4:76:a8:ab:6b:3f:f6:
                    27:49
                Exponent: 65537 (0x10001)
        X509v3 extensions:
            X509v3 Subject Alternative Name: 
                DNS:localhost
            X509v3 Key Usage: 
                Digital Signature, Key Encipherment, Key Agreement
            X509v3 Extended Key Usage: 
                TLS Web Server Authentication
            X509v3 Subject Key Identifier: 
                B2:A3:97:32:BB:51:65:68:13:ED:51:3B:B3:7C:1A:3B:2E:69:88:99
            X509v3 Authority Key Identifier: 
                keyid:7B:72:9A:5B:F3:53:C0:55:90:F4:F0:54:C7:62:60:59:C0:AA:0A:69

            X509v3 Basic Constraints: 
                CA:FALSE
            Authority Information Access: 
                CA Issuers - URI:http://test.curl.se/ca/EdelCurlRoot.cer

            X509v3 CRL Distribution Points: 

                Full Name:
                  URI:http://test.curl.se/ca/EdelCurlRoot.crl

    Signature Algorithm: sha256WithRSAEncryption
         5e:cd:35:d8:3d:80:64:44:94:e3:14:bb:9c:f1:5d:f1:81:bf:
         06:b0:fc:14:d7:09:d4:7a:3f:be:b1:9a:76:bf:a4:0d:c1:b1:
         f6:2a:0a:54:71:dd:61:17:4d:35:6d:4d:1d:5e:55:dc:13:65:
         66:be:64:c7:8b:84:2e:5b:ea:bf:f0:f7:a8:dc:6b:1d:83:79:
         69:1c:22:cc:10:98:a0:9d:70:50:d3:d7:d8:bd:44:26:d5:da:
         30:08:db:c0:33:ca:60:66:fe:9c:73:73:5b:da:77:01:83:16:
         72:11:4e:9a:e4:88:e4:7d:d8:1d:54:51:ab:1b:f5:76:5f:35:
         1c:85:09:9e:29:87:95:e3:40:e1:b9:03:bf:f9:25:6a:82:21:
         5a:8f:3f:6f:73:6f:ee:a1:20:e1:96:f5:af:a8:87:61:2f:b1:
         c0:f8:49:8a:f0:1d:0f:22:74:65:52:9a:ad:27:0b:d0:0d:32:
         06:f8:fd:c4:ab:5e:c2:27:8f:be:9d:41:9b:62:d2:8a:12:4a:
         e9:a5:6e:2c:0e:a8:a0:d3:12:69:c2:e5:7b:40:6c:5d:05:c3:
         20:6c:a9:f4:33:82:1d:df:b0:19:bd:d8:57:43:72:1a:35:3a:
         9a:7d:0b:be:60:a0:65:3b:30:ec:c3:52:05:bb:41:58:32:af:
         7e:70:c5:67
-----BEGIN CERTIFICATE-----
MIIERzCCAy+gAwIBAgIJAL3+Jo8zb/BmMA0GCSqGSIb3DQEBCwUAMGgxCzAJBgNV
BAYTAk5OMTEwLwYDVQQKDChFZGVsIEN1cmwgQXJjdGljIElsbHVkaXVtIFJlc2Vh
cmNoIENsb3VkMSYwJAYDVQQDDB1Ob3J0aGVybiBOb3doZXJlIFRydXN0IEFuY2hv
cjAeFw0yNTAzMDYwOTU4NTJaFw0yNTEyMzEwOTU4NTJaMFQxCzAJBgNVBAYTAk5O
MTEwLwYDVQQKDChFZGVsIEN1cmwgQXJjdGljIElsbHVkaXVtIFJlc2VhcmNoIENs
b3VkMRIwEAYDVQQDDAlsb2NhbGhvc3QwggEiMA0GCSqGSIb3DQEBAQUAA4IBDwAw
ggEKAoIBAQDS2qLZVhOj52cQRwtrUYAH+w4x3Avm261di7Yz0+sE9TcDwY9+YyyW
nub2SVwf/q3a3cxXVXObVJE2Jj6xmbIDwZLbbW9W0OYtU9M2P7X8oc0TmQNGiR/h
RycS1RCI6fJnVw88S2A96R8XuOBgi5JW59pWMRUn61WVYhelSQfr5PgYxJmHRBI/
J+1s7QU+oZh5pzlGEAHqsnIG8VqjBlsXiQJRMC/zaLDrguu/pouEEZzPiyBPV9BO
z/3P838Mg/oMqRTxOiorvNYk9PV5kpb9TMPPqXMlaOwswgBFwSEmv/9lg3bNHetP
u48yQFGKX8bwJ4BD+ZIe5Haoq2s/9idJAgMBAAGjggEGMIIBAjAUBgNVHREEDTAL
gglsb2NhbGhvc3QwCwYDVR0PBAQDAgOoMBMGA1UdJQQMMAoGCCsGAQUFBwMBMB0G
A1UdDgQWBBSyo5cyu1FlaBPtUTuzfBo7LmmImTAfBgNVHSMEGDAWgBR7cppb81PA
VZD08FTHYmBZwKoKaTAJBgNVHRMEAjAAMEMGCCsGAQUFBwEBBDcwNTAzBggrBgEF
BQcwAoYnaHR0cDovL3Rlc3QuY3VybC5zZS9jYS9FZGVsQ3VybFJvb3QuY2VyMDgG
A1UdHwQxMC8wLaAroCmGJ2h0dHA6Ly90ZXN0LmN1cmwuc2UvY2EvRWRlbEN1cmxS
b290LmNybDANBgkqhkiG9w0BAQsFAAOCAQEAXs012D2AZESU4xS7nPFd8YG/BrD8
FNcJ1Ho/vrGadr+kDcGx9ioKVHHdYRdNNW1NHV5V3BNlZr5kx4uELlvqv/D3qNxr
HYN5aRwizBCYoJ1wUNPX2L1EJtXaMAjbwDPKYGb+nHNzW9p3AYMWchFOmuSI5H3Y
HVRRqxv1dl81HIUJnimHleNA4bkDv/klaoIhWo8/b3Nv7qEg4Zb1r6iHYS+xwPhJ
ivAdDyJ0ZVKarScL0A0yBvj9xKtewiePvp1Bm2LSihJK6aVuLA6ooNMSacLle0Bs
XQXDIGyp9DOCHd+wGb3YV0NyGjU6mn0LvmCgZTsw7MNSBbtBWDKvfnDFZw==
-----END CERTIFICATE-----
