Certificate:
    Data:
        Version: 3 (0x2)
        Serial Number:
            bd:fe:26:8f:33:6f:f0:68
    Signature Algorithm: sha256WithRSAEncryption
        Issuer:
            countryName               = NN
            organizationName          = Edel Curl Arctic Illudium Research Cloud
            commonName                = Northern Nowhere Trust Anchor
        Validity
            Not Before: Mar  6 09:58:52 2025 GMT
            Not After : Dec 31 09:58:52 2025 GMT
        Subject:
            countryName               = NN
            organizationName          = Edel Curl Arctic Illudium Research Cloud
            commonName                = localhost
        Subject Public Key Info:
            Public Key Algorithm: rsaEncryption
                RSA Public-Key: (2048 bit)
                Modulus:
                    00:a5:dd:69:56:c8:00:46:10:3e:ee:df:5d:8b:28:
                    43:ff:25:c4:ec:7e:b4:7f:74:fc:9d:3e:ab:03:45:
                    39:4a:ff:05:91:31:83:28:0a:5a:10:f5:db:89:5e:
                    54:4b:14:35:e0:ea:31:5d:cc:82:9d:ab:fb:19:1f:
                    75:10:bf:1f:32:29:02:e2:b7:11:36:5b:34:90:bf:
                    a9:60:51:19:3e:b7:67:2a:79:46:21:15:64:f6:21:
                    96:fb:95:ea:75:45:38:b1:00:f7:12:17:d1:e9:f0:
                    80:bd:0a:d8:5e:b4:84:1f:a2:19:26:e2:84:8a:2d:
                    3c:47:c8:c5:08:ef:2e:a1:ec:0d:05:a5:ff:55:0f:
                    00:43:ee:da:8c:5c:a0:c2:86:c3:e8:25:2e:f8:82:
                    fd:81:bc:ca:cb:76:0a:0e:2d:88:83:2f:b7:6c:1d:
                    62:3a:2a:1c:63:92:7d:41:f7:db:99:d0:96:c4:b9:
                    4a:99:b5:a7:7a:61:66:4f:97:0f:c3:93:96:1e:bf:
                    ac:5d:43:ed:38:e4:a3:44:59:49:8c:2f:f7:57:82:
                    29:30:e2:1b:80:53:b8:d1:40:33:aa:c2:ee:25:cb:
                    3b:e3:73:ee:4c:e7:ab:a3:e6:b1:01:1a:b0:ad:66:
                    7a:a1:86:e0:f4:a7:68:41:79:8a:90:f9:56:f1:74:
                    70:4d
                Exponent: 65537 (0x10001)
        X509v3 extensions:
            X509v3 Subject Alternative Name: 
                DNS:localhost
            X509v3 Key Usage: 
                Digital Signature, Key Encipherment, Key Agreement
            X509v3 Extended Key Usage: 
                TLS Web Server Authentication
            X509v3 Subject Key Identifier: 
                E3:C8:B2:7E:A2:07:A4:E9:B1:4F:FB:F6:55:17:66:9B:CD:1F:D0:58
            X509v3 Authority Key Identifier: 
                keyid:7B:72:9A:5B:F3:53:C0:55:90:F4:F0:54:C7:62:60:59:C0:AA:0A:69

            X509v3 Basic Constraints: 
                CA:FALSE
            Authority Information Access: 
                CA Issuers - URI:http://test.curl.se/ca/EdelCurlRoot.cer

            X509v3 CRL Distribution Points: 

                Full Name:
                  URI:http://test.curl.se/ca/EdelCurlRoot.crl

    Signature Algorithm: sha256WithRSAEncryption
         60:c6:eb:a8:a7:bb:87:3b:d7:93:a6:fa:0a:7c:c5:19:86:ea:
         73:0e:2f:12:94:a4:b4:b7:81:18:42:4f:e5:c4:1a:b3:24:13:
         8f:e4:ff:e6:64:70:0a:de:bc:55:8c:e3:68:72:87:4b:88:f2:
         86:8b:be:4b:6b:ec:5b:e1:e4:ad:10:5e:d4:a3:6f:db:a8:99:
         95:20:f0:75:5e:3b:a0:65:88:f3:7b:66:ad:ab:0f:3c:06:c2:
         c7:ca:62:2d:07:c8:f8:13:d3:3d:39:7c:1e:e3:09:20:c5:64:
         30:36:14:f3:c2:34:59:df:db:10:6a:88:d1:d3:78:67:1f:33:
         6f:cc:2d:2c:76:bb:df:7f:5f:39:5f:11:80:07:4b:c5:73:b3:
         20:d6:dd:e4:cf:82:d0:3c:0e:30:6b:c7:da:52:a1:ba:13:69:
         83:e3:fe:0f:54:de:69:3a:f7:7d:74:11:53:d9:1e:bd:4d:aa:
         b8:fa:3a:a3:c7:e2:69:5e:66:d1:10:1f:23:f4:26:9b:df:65:
         15:8a:63:15:a4:b8:8f:a4:93:5c:9e:25:99:e8:db:22:a3:86:
         9f:0b:c4:53:d6:fe:58:d5:d9:30:c5:02:dc:c5:0e:57:c4:21:
         fa:66:34:c4:95:46:05:e8:62:56:37:c1:41:bb:b7:e9:cc:3f:
         a9:a2:72:8e
-----BEGIN CERTIFICATE-----
MIIESTCCAzGgAwIBAgIJAL3+Jo8zb/BoMA0GCSqGSIb3DQEBCwUAMGgxCzAJBgNV
BAYTAk5OMTEwLwYDVQQKDChFZGVsIEN1cmwgQXJjdGljIElsbHVkaXVtIFJlc2Vh
cmNoIENsb3VkMSYwJAYDVQQDDB1Ob3J0aGVybiBOb3doZXJlIFRydXN0IEFuY2hv
cjAeFw0yNTAzMDYwOTU4NTJaFw0yNTEyMzEwOTU4NTJaMFQxCzAJBgNVBAYTAk5O
MTEwLwYDVQQKDChFZGVsIEN1cmwgQXJjdGljIElsbHVkaXVtIFJlc2VhcmNoIENs
b3VkMRIwEAYDVQQDDAlsb2NhbGhvc3QwggEiMA0GCSqGSIb3DQEBAQUAA4IBDwAw
ggEKAoIBAQCl3WlWyABGED7u312LKEP/JcTsfrR/dPydPqsDRTlK/wWRMYMoCloQ
9duJXlRLFDXg6jFdzIKdq/sZH3UQvx8yKQLitxE2WzSQv6lgURk+t2cqeUYhFWT2
IZb7lep1RTixAPcSF9Hp8IC9CthetIQfohkm4oSKLTxHyMUI7y6h7A0Fpf9VDwBD
7tqMXKDChsPoJS74gv2BvMrLdgoOLYiDL7dsHWI6Khxjkn1B99uZ0JbEuUqZtad6
YWZPlw/Dk5Yev6xdQ+045KNEWUmML/dXgikw4huAU7jRQDOqwu4lyzvjc+5M56uj
5rEBGrCtZnqhhuD0p2hBeYqQ+VbxdHBNAgMBAAGjggEIMIIBBDAWBgNVHREEDzAN
ggtsb2NhbGhvc3QAaDALBgNVHQ8EBAMCA6gwEwYDVR0lBAwwCgYIKwYBBQUHAwEw
HQYDVR0OBBYEFOPIsn6iB6TpsU/79lUXZpvNH9BYMB8GA1UdIwQYMBaAFHtymlvz
U8BVkPTwVMdiYFnAqgppMAkGA1UdEwQCMAAwQwYIKwYBBQUHAQEENzA1MDMGCCsG
AQUFBzAChidodHRwOi8vdGVzdC5jdXJsLnNlL2NhL0VkZWxDdXJsUm9vdC5jZXIw
OAYDVR0fBDEwLzAtoCugKYYnaHR0cDovL3Rlc3QuY3VybC5zZS9jYS9FZGVsQ3Vy
bFJvb3QuY3JsMA0GCSqGSIb3DQEBCwUAA4IBAQBgxuuop7uHO9eTpvoKfMUZhupz
Di8SlKS0t4EYQk/lxBqzJBOP5P/mZHAK3rxVjONocodLiPKGi75La+xb4eStEF7U
o2/bqJmVIPB1XjugZYjze2atqw88BsLHymItB8j4E9M9OXwe4wkgxWQwNhTzwjRZ
39sQaojR03hnHzNvzC0sdrvff185XxGAB0vFc7Mg1t3kz4LQPA4wa8faUqG6E2mD
4/4PVN5pOvd9dBFT2R69Taq4+jqjx+JpXmbREB8j9Cab32UVimMVpLiPpJNcniWZ
6Nsio4afC8RT1v5Y1dkwxQLcxQ5XxCH6ZjTElUYF6GJWN8FBu7fpzD+ponKO
-----END CERTIFICATE-----
