extensions = x509v3
[ x509v3 ]
subjectAltName = DNS:localhost
keyUsage	= keyEncipherment,digitalSignature,keyAgreement
extendedKeyUsage = serverAuth
subjectKeyIdentifier = hash
authorityKeyIdentifier = keyid
basicConstraints = CA:false
authorityInfoAccess     = @issuer_info
crlDistributionPoints   = @crl_info

[ crl_ext ]
authorityKeyIdentifier  = keyid:always
authorityInfoAccess     = @issuer_info

[ issuer_info ]
caIssuers;URI.0         = http://test.curl.se/ca/EdelCurlRoot.cer

[ crl_info ]
URI.0                   = http://test.curl.se/ca/EdelCurlRoot.crl

[ req ]
default_bits                    = 12048
distinguished_name              = req_DN
default_md			= sha256
string_mask			= utf8only
[ req_DN ]
countryName                     = "Country Name is Northern Nowhere"
countryName_value            = NN
organizationName              = "Organization Name"
organizationName_value     = Edel Curl Arctic Illudium Research Cloud
commonName                      = "Common Name"
commonName_value              = localhost

[something]
# The key
# the certificate
# some dhparam
-----BEGIN RSA PRIVATE KEY-----
MIIEpAIBAAKCAQEAqq4P3SCjaw0TbAC4A3lYpiC3Fa9UlRuXqYkUDoMydCv8kdjG
5O3lrFVFtUWOHR9Irs6sCvPS5I8JxZtX/Kk7cpT85Q/pU01G2YGXqc9z1SuKclCA
VRQpw7GJUZquxE51t9/NTVuLxq6VCbMysdELMgSdVDJKS6vuDhoR1Odn2DYxYnav
w2TwjC0sYIHGZqgxOuuizuzWZf6AsuhuOx5QZbGRnAoFBo6JTEbC32i9Hs8KzQSZ
qgFm7HQb9RUTTc/nzSqOYdZMeRfNnlXuSAU1qVUWGnULElGN1VWJUDaTr7VaChZm
1oComXjrCRxfJqqh2yrTnsfyovBpr251gaDu8wIDAQABAoIBAQCdg9n8Fxz5tK2R
5O/ttNVNK7ALgS2sFjTXLzylUAsGD3oeF1Mm/y4Q5vlYG4LV+YMYYH+B9BdS+3bn
OT/wWzYTvs/NjeulBxI1tVWET4H03yP777Mf0WXhxjyWZQyY+lfFg/NySuQqTgAZ
XZmRZPzSAlQ32dmbEGa3+PMv6wd5Drei9dW8zXHg0Hhxu1ZQffwAuqMaH7JRf7Vz
947E59YrTVOSz7V8q9B0Jw/y3ozdVF4XsYuTZu6hcFRGu7hyBblp8JXhbpRpk1+0
8iYas3Wh5qXbe7IMmRuyHKQilweCnOvLwsd6zkyPmf/RfElbVwMfy9YQZ9r5t3cG
8JLTmexhAoGBAOB7xb6kzBgRVKC1IMos18l9sj/4x14Iu9QSoOUyPiC+tnXaSV2a
6Wx/5e0x3de3fv4CpcIPrO243CAvzAY8dKfUN0L0DLH0RTWtu7G8yAe8rTGDN3Vk
xg1bfNaaciOyq1MKf5o5VBNdf8wqz4tOMuWc0hB69+7NJl65icWZSmk5AoGBAMKk
hRr+q1bokENma9RDAZQG2CvELfetgvs8i40UQk/KUTsg9xOJvf7sohoYUEqxFTOR
5lmM01wwdRuHLwg333sP1zLwR1KlxUWp+hOVxY3utAiCNMQKkMZGoTtx/S4c3fJX
ETyNgXnXRGe7S6feqaubEmYn2/zRtQMEsUC2+TWLAoGAOeFwEUHopeQCEBXjyH1b
fkZ8qWX58dMKqxnKho432rWR0j1gYVRKD4HCxS/wZWiYw+Hm32yvR/Q8PchVMN5x
rbxYK1lF1LSJC9gp5yAn62bIuVV9/TTopBUM0UCtYWr2Jck1MYzKktuu0fPP47lc
Ajw3JayvNNGMrSvlzB9EQnECgYEAsDO/S3DAKyzdbCaL9tux0g9gIj62XkD1Efr9
Wfm9Df5ZCu4MveMz3FLbbEQWa4djagvqO6cAr7QuT31RVl8+MGlmpvZdmrP2odn+
STyMWrB8yjcVDWODK/tEekv2pof7ZCbts6NmUqZNhppHIvCvKGp5fYEX5Qbylojo
7Wy2rYECgYBlgx30rVT0S+fqAxje6EU1u2L/vx7Bb+VwxVwz66jXgOp3WJRex29z
te8vPrByqaWDRB5cT2aRMQESc8HjUr7GC6DRpBV09g+alJnjuwKwl+gY9zg6cb0l
jcKnwIobQdxoptlCppDgyzaa0YobJw4Bp6n2o0IRt6Tfl2Gh+BvpXw==
-----END RSA PRIVATE KEY-----
Certificate:
    Data:
        Version: 3 (0x2)
        Serial Number: 16693795668433 (0xf2ed3c2c1d1)
    Signature Algorithm: sha256WithRSAEncryption
        Issuer:
            countryName               = NN
            organizationName          = Edel Curl Arctic Illudium Research Cloud
            commonName                = Northern Nowhere Trust Anchor
        Validity
            Not Before: Nov 25 12:32:46 2022 GMT
            Not After : Feb 11 12:32:46 2031 GMT
        Subject:
            countryName               = NN
            organizationName          = Edel Curl Arctic Illudium Research Cloud
            commonName                = localhost
        Subject Public Key Info:
            Public Key Algorithm: rsaEncryption
                Public-Key: (2048 bit)
                Modulus:
                    00:aa:ae:0f:dd:20:a3:6b:0d:13:6c:00:b8:03:79:
                    58:a6:20:b7:15:af:54:95:1b:97:a9:89:14:0e:83:
                    32:74:2b:fc:91:d8:c6:e4:ed:e5:ac:55:45:b5:45:
                    8e:1d:1f:48:ae:ce:ac:0a:f3:d2:e4:8f:09:c5:9b:
                    57:fc:a9:3b:72:94:fc:e5:0f:e9:53:4d:46:d9:81:
                    97:a9:cf:73:d5:2b:8a:72:50:80:55:14:29:c3:b1:
                    89:51:9a:ae:c4:4e:75:b7:df:cd:4d:5b:8b:c6:ae:
                    95:09:b3:32:b1:d1:0b:32:04:9d:54:32:4a:4b:ab:
                    ee:0e:1a:11:d4:e7:67:d8:36:31:62:76:af:c3:64:
                    f0:8c:2d:2c:60:81:c6:66:a8:31:3a:eb:a2:ce:ec:
                    d6:65:fe:80:b2:e8:6e:3b:1e:50:65:b1:91:9c:0a:
                    05:06:8e:89:4c:46:c2:df:68:bd:1e:cf:0a:cd:04:
                    99:aa:01:66:ec:74:1b:f5:15:13:4d:cf:e7:cd:2a:
                    8e:61:d6:4c:79:17:cd:9e:55:ee:48:05:35:a9:55:
                    16:1a:75:0b:12:51:8d:d5:55:89:50:36:93:af:b5:
                    5a:0a:16:66:d6:80:a8:99:78:eb:09:1c:5f:26:aa:
                    a1:db:2a:d3:9e:c7:f2:a2:f0:69:af:6e:75:81:a0:
                    ee:f3
                Exponent: 65537 (0x10001)
        X509v3 extensions:
            X509v3 Subject Alternative Name: 
                DNS:localhost
            X509v3 Key Usage: 
                Digital Signature, Key Encipherment, Key Agreement
            X509v3 Extended Key Usage: 
                TLS Web Server Authentication
            X509v3 Subject Key Identifier: 
                7A:9A:8C:C7:59:5D:12:8D:51:2F:B1:06:58:1B:0A:B4:9F:31:8D:7F
            X509v3 Authority Key Identifier: 
                keyid:52:40:EE:E1:4F:95:58:29:CA:84:67:8C:0F:8C:CC:FE:8F:A9:FA:A8

            X509v3 Basic Constraints: 
                CA:FALSE
            Authority Information Access: 
                CA Issuers - URI:http://test.curl.se/ca/EdelCurlRoot.cer

            X509v3 CRL Distribution Points: 

                Full Name:
                  URI:http://test.curl.se/ca/EdelCurlRoot.crl

    Signature Algorithm: sha256WithRSAEncryption
         84:61:d9:d9:fb:1e:7e:e7:70:fb:1f:2f:e7:53:14:d5:0b:af:
         0b:7d:30:83:a2:50:5d:7d:80:52:03:25:a4:7e:fb:6a:27:2d:
         c7:2e:db:56:21:c9:90:13:aa:84:d8:0c:ec:fc:76:43:3a:35:
         e6:e9:fe:99:36:eb:ce:5c:43:ea:5b:93:ac:e1:97:00:5f:05:
         e8:a4:69:5b:a9:6a:9a:44:52:f2:75:2c:d7:0d:b1:4b:01:bf:
         b4:18:e3:d6:65:90:06:8e:1d:bc:40:89:75:83:ea:d6:c3:1b:
         57:d8:fa:e9:42:bc:83:1e:e9:27:e7:01:30:46:a8:be:dd:e2:
         1e:96:05:56:a5:03:76:f8:40:a1:8b:1b:5d:3b:45:37:2f:8e:
         d9:b0:d9:ab:5d:b4:9c:fa:7c:ad:db:10:ff:55:40:01:1c:49:
         1c:af:20:cb:9d:5d:74:d9:83:8e:ae:54:3e:57:ce:77:de:1b:
         83:f6:6d:3f:6d:ef:b1:bd:11:aa:10:f5:15:bf:a2:ba:c5:63:
         6c:22:86:d6:78:72:75:7c:68:fb:4a:1c:1f:da:90:53:b3:44:
         dd:db:95:c2:dc:dc:45:9b:78:a8:73:8a:74:a7:91:8f:6d:c7:
         72:a0:00:3b:3f:ea:e6:c9:14:f0:a1:c5:1a:bb:8f:65:d8:75:
         da:3d:4d:cc
-----BEGIN CERTIFICATE-----
MIIERDCCAyygAwIBAgIGDy7TwsHRMA0GCSqGSIb3DQEBCwUAMGgxCzAJBgNVBAYT
Ak5OMTEwLwYDVQQKDChFZGVsIEN1cmwgQXJjdGljIElsbHVkaXVtIFJlc2VhcmNo
IENsb3VkMSYwJAYDVQQDDB1Ob3J0aGVybiBOb3doZXJlIFRydXN0IEFuY2hvcjAe
Fw0yMjExMjUxMjMyNDZaFw0zMTAyMTExMjMyNDZaMFQxCzAJBgNVBAYTAk5OMTEw
LwYDVQQKDChFZGVsIEN1cmwgQXJjdGljIElsbHVkaXVtIFJlc2VhcmNoIENsb3Vk
MRIwEAYDVQQDDAlsb2NhbGhvc3QwggEiMA0GCSqGSIb3DQEBAQUAA4IBDwAwggEK
AoIBAQCqrg/dIKNrDRNsALgDeVimILcVr1SVG5epiRQOgzJ0K/yR2Mbk7eWsVUW1
RY4dH0iuzqwK89LkjwnFm1f8qTtylPzlD+lTTUbZgZepz3PVK4pyUIBVFCnDsYlR
mq7ETnW3381NW4vGrpUJszKx0QsyBJ1UMkpLq+4OGhHU52fYNjFidq/DZPCMLSxg
gcZmqDE666LO7NZl/oCy6G47HlBlsZGcCgUGjolMRsLfaL0ezwrNBJmqAWbsdBv1
FRNNz+fNKo5h1kx5F82eVe5IBTWpVRYadQsSUY3VVYlQNpOvtVoKFmbWgKiZeOsJ
HF8mqqHbKtOex/Ki8GmvbnWBoO7zAgMBAAGjggEGMIIBAjAUBgNVHREEDTALggls
b2NhbGhvc3QwCwYDVR0PBAQDAgOoMBMGA1UdJQQMMAoGCCsGAQUFBwMBMB0GA1Ud
DgQWBBR6mozHWV0SjVEvsQZYGwq0nzGNfzAfBgNVHSMEGDAWgBRSQO7hT5VYKcqE
Z4wPjMz+j6n6qDAJBgNVHRMEAjAAMEMGCCsGAQUFBwEBBDcwNTAzBggrBgEFBQcw
AoYnaHR0cDovL3Rlc3QuY3VybC5zZS9jYS9FZGVsQ3VybFJvb3QuY2VyMDgGA1Ud
HwQxMC8wLaAroCmGJ2h0dHA6Ly90ZXN0LmN1cmwuc2UvY2EvRWRlbEN1cmxSb290
LmNybDANBgkqhkiG9w0BAQsFAAOCAQEAhGHZ2fsefudw+x8v51MU1QuvC30wg6JQ
XX2AUgMlpH77aictxy7bViHJkBOqhNgM7Px2Qzo15un+mTbrzlxD6luTrOGXAF8F
6KRpW6lqmkRS8nUs1w2xSwG/tBjj1mWQBo4dvECJdYPq1sMbV9j66UK8gx7pJ+cB
MEaovt3iHpYFVqUDdvhAoYsbXTtFNy+O2bDZq120nPp8rdsQ/1VAARxJHK8gy51d
dNmDjq5UPlfOd94bg/ZtP23vsb0RqhD1Fb+iusVjbCKG1nhydXxo+0ocH9qQU7NE
3duVwtzcRZt4qHOKdKeRj23HcqAAOz/q5skU8KHFGruPZdh12j1NzA==
-----END CERTIFICATE-----
