Certificate:
    Data:
        Version: 3 (0x2)
        Serial Number:
            81:34:c8:2d:81:f0:53:fc
    Signature Algorithm: sha256WithRSAEncryption
        Issuer:
            countryName               = NN
            organizationName          = Edel Curl Arctic Illudium Research Cloud
            commonName                = Northern Nowhere Trust Anchor
        Validity
            Not Before: Mar  6 10:19:35 2025 GMT
            Not After : Dec 31 10:19:35 2025 GMT
        Subject:
            countryName               = NN
            organizationName          = Edel Curl Arctic Illudium Research Cloud
            commonName                = localhost
        Subject Public Key Info:
            Public Key Algorithm: rsaEncryption
                RSA Public-Key: (2048 bit)
                Modulus:
                    00:ae:62:5b:6e:63:40:e5:ec:5f:99:fe:c6:eb:8a:
                    a7:c2:8a:b0:d3:29:66:29:2c:f6:a1:07:b1:27:c7:
                    bd:d1:c0:72:71:4f:89:20:8d:84:a3:61:17:3d:3a:
                    09:2e:e5:5a:d2:ef:da:ca:6d:9a:83:43:7a:98:ee:
                    40:33:57:b3:20:fc:81:37:f4:ec:db:45:f2:8a:2b:
                    33:fb:e3:57:6c:c1:0c:c2:52:d4:71:e3:46:cc:27:
                    14:c3:20:cd:ef:1a:bb:e7:69:ab:18:76:bf:15:b3:
                    1d:97:95:8a:0f:7d:e6:ff:2d:48:90:f8:f3:19:e2:
                    35:6a:9e:db:20:67:14:6e:a7:3f:dd:67:f7:cd:06:
                    dc:97:05:22:c0:80:62:e3:eb:81:de:ef:a7:ba:31:
                    d2:31:fc:d0:b2:f3:b9:c9:49:0a:c1:70:c0:84:7e:
                    eb:c5:a9:bc:19:eb:fc:1d:34:53:ef:d2:16:25:7d:
                    87:ec:10:bd:84:ca:01:f9:d5:44:13:da:99:b4:12:
                    04:15:70:16:96:99:a6:d6:9d:00:c3:01:f8:c7:d9:
                    26:99:b4:15:e8:29:5c:a4:a2:5f:a5:67:10:33:5e:
                    6d:cc:eb:2e:b4:11:28:ca:02:2d:97:cd:8d:fb:60:
                    23:46:24:7f:4a:0d:32:5f:bd:57:58:da:dc:60:d3:
                    4a:35
                Exponent: 65537 (0x10001)
        X509v3 extensions:
            X509v3 Subject Alternative Name: 
                DNS:localhost
            X509v3 Key Usage: 
                Digital Signature, Key Encipherment, Key Agreement
            X509v3 Extended Key Usage: 
                TLS Web Server Authentication
            X509v3 Subject Key Identifier: 
                48:71:65:0B:51:2B:35:AF:04:CC:16:7B:08:44:0C:CF:B1:5E:4C:B9
            X509v3 Authority Key Identifier: 
                keyid:AF:44:46:FD:A5:B4:E6:91:5F:08:63:B6:50:55:F2:9B:39:03:FC:F0

            X509v3 Basic Constraints: 
                CA:FALSE
            Authority Information Access: 
                CA Issuers - URI:http://test.curl.se/ca/EdelCurlRoot.cer

            X509v3 CRL Distribution Points: 

                Full Name:
                  URI:http://test.curl.se/ca/EdelCurlRoot.crl

    Signature Algorithm: sha256WithRSAEncryption
         8c:52:48:b7:90:18:a8:87:01:e9:43:76:42:5f:41:74:a1:7f:
         01:1b:f0:81:ef:9e:1c:98:a6:33:5b:db:61:7c:d2:7f:a3:67:
         55:51:31:2a:aa:87:24:4b:8a:e2:4d:dc:c3:dd:14:08:9a:ba:
         4d:65:27:6a:25:01:39:90:cb:84:6a:9d:07:c1:43:85:f0:5b:
         41:b0:d9:a5:9e:1c:5e:ab:86:35:f4:df:f5:3c:5b:7e:3b:25:
         70:fa:40:29:12:52:82:83:18:ee:31:ce:48:48:39:5a:88:3f:
         39:dc:c1:0e:ec:66:ac:0f:d1:da:75:61:e3:db:f9:57:82:8c:
         4d:77:b6:23:4b:65:a6:bb:6d:de:1a:a4:c7:0f:c4:5b:fd:91:
         4c:aa:dd:6e:59:ed:ce:fc:cd:db:63:8c:f4:ec:9f:89:e7:6a:
         1d:a3:8c:01:23:a5:23:04:0b:5a:74:18:9b:51:d4:70:a3:80:
         31:16:3e:6e:66:ad:c6:7e:ab:79:a4:b9:79:b3:c6:ec:1e:7a:
         99:92:6c:80:41:60:87:e7:d4:a4:59:63:9e:90:89:36:1c:15:
         80:fd:6c:de:54:a8:e6:cc:34:b3:73:73:5a:7f:d5:b8:36:d5:
         4e:b8:75:c8:4b:5c:12:0d:e5:3b:31:be:7d:f1:79:32:57:74:
         2b:47:cf:8e
-----BEGIN CERTIFICATE-----
MIIERzCCAy+gAwIBAgIJAIE0yC2B8FP8MA0GCSqGSIb3DQEBCwUAMGgxCzAJBgNV
BAYTAk5OMTEwLwYDVQQKDChFZGVsIEN1cmwgQXJjdGljIElsbHVkaXVtIFJlc2Vh
cmNoIENsb3VkMSYwJAYDVQQDDB1Ob3J0aGVybiBOb3doZXJlIFRydXN0IEFuY2hv
cjAeFw0yNTAzMDYxMDE5MzVaFw0yNTEyMzExMDE5MzVaMFQxCzAJBgNVBAYTAk5O
MTEwLwYDVQQKDChFZGVsIEN1cmwgQXJjdGljIElsbHVkaXVtIFJlc2VhcmNoIENs
b3VkMRIwEAYDVQQDDAlsb2NhbGhvc3QwggEiMA0GCSqGSIb3DQEBAQUAA4IBDwAw
ggEKAoIBAQCuYltuY0Dl7F+Z/sbriqfCirDTKWYpLPahB7Enx73RwHJxT4kgjYSj
YRc9Ogku5VrS79rKbZqDQ3qY7kAzV7Mg/IE39OzbRfKKKzP741dswQzCUtRx40bM
JxTDIM3vGrvnaasYdr8Vsx2XlYoPfeb/LUiQ+PMZ4jVqntsgZxRupz/dZ/fNBtyX
BSLAgGLj64He76e6MdIx/NCy87nJSQrBcMCEfuvFqbwZ6/wdNFPv0hYlfYfsEL2E
ygH51UQT2pm0EgQVcBaWmabWnQDDAfjH2SaZtBXoKVykol+lZxAzXm3M6y60ESjK
Ai2XzY37YCNGJH9KDTJfvVdY2txg00o1AgMBAAGjggEGMIIBAjAUBgNVHREEDTAL
gglsb2NhbGhvc3QwCwYDVR0PBAQDAgOoMBMGA1UdJQQMMAoGCCsGAQUFBwMBMB0G
A1UdDgQWBBRIcWULUSs1rwTMFnsIRAzPsV5MuTAfBgNVHSMEGDAWgBSvREb9pbTm
kV8IY7ZQVfKbOQP88DAJBgNVHRMEAjAAMEMGCCsGAQUFBwEBBDcwNTAzBggrBgEF
BQcwAoYnaHR0cDovL3Rlc3QuY3VybC5zZS9jYS9FZGVsQ3VybFJvb3QuY2VyMDgG
A1UdHwQxMC8wLaAroCmGJ2h0dHA6Ly90ZXN0LmN1cmwuc2UvY2EvRWRlbEN1cmxS
b290LmNybDANBgkqhkiG9w0BAQsFAAOCAQEAjFJIt5AYqIcB6UN2Ql9BdKF/ARvw
ge+eHJimM1vbYXzSf6NnVVExKqqHJEuK4k3cw90UCJq6TWUnaiUBOZDLhGqdB8FD
hfBbQbDZpZ4cXquGNfTf9TxbfjslcPpAKRJSgoMY7jHOSEg5Wog/OdzBDuxmrA/R
2nVh49v5V4KMTXe2I0tlprtt3hqkxw/EW/2RTKrdblntzvzN22OM9OyfiedqHaOM
ASOlIwQLWnQYm1HUcKOAMRY+bmatxn6reaS5ebPG7B56mZJsgEFgh+fUpFljnpCJ
NhwVgP1s3lSo5sw0s3NzWn/VuDbVTrh1yEtcEg3lOzG+ffF5Mld0K0fPjg==
-----END CERTIFICATE-----
