extensions = x509v3

[ x509v3 ]
subjectAltName          = DNS:localhost,DNS:localhost1,DNS:localhost2
keyUsage                = keyEncipherment,digitalSignature,keyAgreement
extendedKeyUsage        = serverAuth
subjectKeyIdentifier    = hash
authorityKeyIdentifier  = keyid
basicConstraints        = CA:false
authorityInfoAccess     = @issuer_info
crlDistributionPoints   = @crl_info

[ crl_ext ]
authorityKeyIdentifier  = keyid:always
authorityInfoAccess     = @issuer_info

[ issuer_info ]
caIssuers;URI.0         = http://test.curl.se/ca/EdelCurlRoot.cer

[ crl_info ]
URI.0                   = http://test.curl.se/ca/EdelCurlRoot.crl

[ req ]
default_bits            = 1024
distinguished_name      = req_DN
default_md              = sha256
string_mask             = utf8only

[ req_DN ]
countryName             = "Country Name is Northern Nowhere"
countryName_value       = NN
organizationName        = "Organization Name"
organizationName_value  = Edel Curl Arctic Illudium Research Cloud
commonName              = "Common Name"
commonName_value        = localhost.nn
-----BEGIN RSA PRIVATE KEY-----
MIIEowIBAAKCAQEAttpxxv1y5v8iKGaQSLoe0+HJfqOqf5sDGDsTP3EXMsEBgGPi
UU5zAzbOeFn4LYPnOBlY/Be3UH16fm+35meW9pCcQyHlK1wti/oSVAPLlJtJxvvY
K7PylbBd3Fj6cPasaMwKk1wGlmEvAatdtHhwBOLzG0X8ebkbE2P3UMJH+Gm9IOkV
VJTEqT1V+l2zJKSDKN2zGi6GbQ0fMvBBcioWpWhW7mK2lbfgimsEm60IzAOyFokG
xYePspSnnS/8m4AyoHiSkZ6Zf+9pwWphHFEQN91/vjWIw76RtN9xUKrtmaQUe0pL
mhrUjrtqFl3hmFONa28qSdn/4mGJTuqsxrowhQIDAQABAoIBABsjmuV88pPkZC54
4otYzICIL37TTdf4quHqyrWM1HOc/9sNeCa3LQzaEpT8TYB75lKGOJXZ80RIC2k+
rZ3N3DMmTXsNSdVAriXrbNL5aTraPX4CHRiHccbT0WqF7k3b3sUDG8K5UuT48aAe
zh6eDYo8IPb4UTvDxIgBO1DKNSJiVvYFnrMXWhPqoQ3KgGfRc7KIPT4LCAksA/y+
foQ63PJzrYcYrpWf5FHx3y9RR74pT/zGPuI6X3atvSqSbGGCj9KiyRgrhdCXsdWT
Og0fNfY5+2MpgtSBGM9YaqRaHfrFVml+3/pCG/M7uYUfi8a5RH2ljY0BAnVg4xTt
X1ZR+5UCgYEA5DF8wZaJ0uG4xioIH8j9HR/Mb5PiTjqvnxKC+jyrSksvy//SmRaW
Ju/V6zGLbA5c1VOEtjZEzw6UWb9TCDiAOfc0QFoGlmX6wkQ//13+5jq7M4rRDZdC
qwgSHYRzYINCIn/x8M2BM7BGnrjLOR9ebeHPeWk/gOWMOmSGb2vP7wcCgYEAzSKS
LjGG5m3VBKgoWvL2ch2z6wIRADZCTy47PWZA5HprEyLTckKqZf6I9omfTszWDCi7
UPEh6kZvAPtt+IU949aLhRDPdzBx0FQAd145qMehRKt8iVUsnxp3G7gW9ckM7oMd
XMvBcVrmDKOvAXl7lCg3x8KBt9oH9ZG2bOT5NRMCgYEAqpstMPdB1/6WzOGD7W+x
feLWT9165w4NW5rVfg156zPHane7lmVCoZ3Si+Mg4Ark8UFeCXUNgNjfpTHb/Ftx
0uS1lh84qZ1ZG4E3b89w0eS7LU/t+IFMgN6p3JO4R0IbYfvSgTzECkcSpXx3xB9l
1DVtjtJXfiEg9E9QC2HJtmUCgYAKeFY/t1VsU3TI7RBKPBZqEqwJNazKdvqBchmh
86MiRkFK0785GL/7vrcc5j9UVU4jhrywz+3sODYYNb0SLzLOezfZzdbY/YcBnBf9
/7gvrijECYCsvcUuRbqIlqfNWbqoPdb00o2IDJyrTntzNtEg6cCXGI1oZd98IDjQ
bAtwMwKBgC5sHW6rjae5ATgwmWpUEA9YTyuuxoCk3j8yPSjeuRvf1X3PkgLKGWB7
mkW6EPars71rQiyOq8rH0r1Vbw8LjZfGuYn1f7QxGWPZb+S+SVwPdSOXp3TTFc4j
E3JVujYwN4rHLbVONNtqFvFUjqBXXpPYZhXritJrsJuSIYk/JH+1
-----END RSA PRIVATE KEY-----
Certificate:
    Data:
        Version: 3 (0x2)
        Serial Number:
            81:34:c8:2d:81:f0:54:1c
    Signature Algorithm: sha256WithRSAEncryption
        Issuer:
            countryName               = NN
            organizationName          = Edel Curl Arctic Illudium Research Cloud
            commonName                = Northern Nowhere Trust Anchor
        Validity
            Not Before: Mar  6 11:19:04 2025 GMT
            Not After : Dec 31 11:19:04 2025 GMT
        Subject:
            countryName               = NN
            organizationName          = Edel Curl Arctic Illudium Research Cloud
            commonName                = localhost.nn
        Subject Public Key Info:
            Public Key Algorithm: rsaEncryption
                RSA Public-Key: (2048 bit)
                Modulus:
                    00:b6:da:71:c6:fd:72:e6:ff:22:28:66:90:48:ba:
                    1e:d3:e1:c9:7e:a3:aa:7f:9b:03:18:3b:13:3f:71:
                    17:32:c1:01:80:63:e2:51:4e:73:03:36:ce:78:59:
                    f8:2d:83:e7:38:19:58:fc:17:b7:50:7d:7a:7e:6f:
                    b7:e6:67:96:f6:90:9c:43:21:e5:2b:5c:2d:8b:fa:
                    12:54:03:cb:94:9b:49:c6:fb:d8:2b:b3:f2:95:b0:
                    5d:dc:58:fa:70:f6:ac:68:cc:0a:93:5c:06:96:61:
                    2f:01:ab:5d:b4:78:70:04:e2:f3:1b:45:fc:79:b9:
                    1b:13:63:f7:50:c2:47:f8:69:bd:20:e9:15:54:94:
                    c4:a9:3d:55:fa:5d:b3:24:a4:83:28:dd:b3:1a:2e:
                    86:6d:0d:1f:32:f0:41:72:2a:16:a5:68:56:ee:62:
                    b6:95:b7:e0:8a:6b:04:9b:ad:08:cc:03:b2:16:89:
                    06:c5:87:8f:b2:94:a7:9d:2f:fc:9b:80:32:a0:78:
                    92:91:9e:99:7f:ef:69:c1:6a:61:1c:51:10:37:dd:
                    7f:be:35:88:c3:be:91:b4:df:71:50:aa:ed:99:a4:
                    14:7b:4a:4b:9a:1a:d4:8e:bb:6a:16:5d:e1:98:53:
                    8d:6b:6f:2a:49:d9:ff:e2:61:89:4e:ea:ac:c6:ba:
                    30:85
                Exponent: 65537 (0x10001)
        X509v3 extensions:
            X509v3 Subject Alternative Name: 
                DNS:localhost, DNS:localhost1, DNS:localhost2
            X509v3 Key Usage: 
                Digital Signature, Key Encipherment, Key Agreement
            X509v3 Extended Key Usage: 
                TLS Web Server Authentication
            X509v3 Subject Key Identifier: 
                31:DE:73:1A:66:71:5C:66:6D:F0:9A:EB:30:AA:E9:F7:24:CB:A7:E5
            X509v3 Authority Key Identifier: 
                keyid:04:2C:76:0B:2F:18:04:65:37:6D:47:14:C6:13:05:31:2E:C0:24:66

            X509v3 Basic Constraints: 
                CA:FALSE
            Authority Information Access: 
                CA Issuers - URI:http://test.curl.se/ca/EdelCurlRoot.cer

            X509v3 CRL Distribution Points: 

                Full Name:
                  URI:http://test.curl.se/ca/EdelCurlRoot.crl

    Signature Algorithm: sha256WithRSAEncryption
         a0:be:b4:79:23:40:97:dc:c4:c8:07:9c:0a:07:5c:70:29:c5:
         ee:27:66:e7:a0:3f:cf:b4:86:2a:8b:e5:cb:fc:b1:b2:da:e3:
         ae:d3:dd:37:f5:9a:12:d6:5f:30:f5:1d:e3:b8:93:b4:30:03:
         1c:e2:d0:94:ce:db:a0:93:f2:c2:55:06:09:72:bc:ee:f9:51:
         c1:8f:09:e6:97:8e:a1:81:b6:20:f5:8b:78:a3:a6:f9:bd:42:
         fd:d7:49:0b:3d:b3:57:31:de:b9:1b:04:7f:d4:81:ea:cc:b5:
         cc:86:11:c4:52:2f:81:6f:05:92:92:a5:e7:4b:d8:af:7f:34:
         fd:17:d0:8f:bc:f3:bf:fe:72:c6:62:2d:90:37:ec:18:02:93:
         59:c1:43:6e:29:fc:58:33:21:67:a0:5f:03:ad:01:4b:1c:02:
         7b:f8:ce:9a:a9:b8:38:37:ce:5f:ef:5f:d3:fc:e1:d9:0a:05:
         63:f9:e7:e6:d8:01:5b:07:5c:59:4f:cb:4c:b1:23:8e:82:8c:
         89:53:c8:12:e2:44:01:be:53:9c:24:4e:39:e9:aa:3d:d9:78:
         63:c7:23:85:7d:ca:d4:b9:91:a5:bd:c2:26:a6:d4:22:c2:90:
         d0:9d:ce:02:2c:04:3d:e3:c6:9d:34:c5:fb:1e:ff:72:d1:3c:
         12:08:cc:c4
-----BEGIN CERTIFICATE-----
MIIEYjCCA0qgAwIBAgIJAIE0yC2B8FQcMA0GCSqGSIb3DQEBCwUAMGgxCzAJBgNV
BAYTAk5OMTEwLwYDVQQKDChFZGVsIEN1cmwgQXJjdGljIElsbHVkaXVtIFJlc2Vh
cmNoIENsb3VkMSYwJAYDVQQDDB1Ob3J0aGVybiBOb3doZXJlIFRydXN0IEFuY2hv
cjAeFw0yNTAzMDYxMTE5MDRaFw0yNTEyMzExMTE5MDRaMFcxCzAJBgNVBAYTAk5O
MTEwLwYDVQQKDChFZGVsIEN1cmwgQXJjdGljIElsbHVkaXVtIFJlc2VhcmNoIENs
b3VkMRUwEwYDVQQDDAxsb2NhbGhvc3Qubm4wggEiMA0GCSqGSIb3DQEBAQUAA4IB
DwAwggEKAoIBAQC22nHG/XLm/yIoZpBIuh7T4cl+o6p/mwMYOxM/cRcywQGAY+JR
TnMDNs54Wfgtg+c4GVj8F7dQfXp+b7fmZ5b2kJxDIeUrXC2L+hJUA8uUm0nG+9gr
s/KVsF3cWPpw9qxozAqTXAaWYS8Bq120eHAE4vMbRfx5uRsTY/dQwkf4ab0g6RVU
lMSpPVX6XbMkpIMo3bMaLoZtDR8y8EFyKhalaFbuYraVt+CKawSbrQjMA7IWiQbF
h4+ylKedL/ybgDKgeJKRnpl/72nBamEcURA33X++NYjDvpG033FQqu2ZpBR7Skua
GtSOu2oWXeGYU41rbypJ2f/iYYlO6qzGujCFAgMBAAGjggEeMIIBGjAsBgNVHREE
JTAjgglsb2NhbGhvc3SCCmxvY2FsaG9zdDGCCmxvY2FsaG9zdDIwCwYDVR0PBAQD
AgOoMBMGA1UdJQQMMAoGCCsGAQUFBwMBMB0GA1UdDgQWBBQx3nMaZnFcZm3wmusw
qun3JMun5TAfBgNVHSMEGDAWgBQELHYLLxgEZTdtRxTGEwUxLsAkZjAJBgNVHRME
AjAAMEMGCCsGAQUFBwEBBDcwNTAzBggrBgEFBQcwAoYnaHR0cDovL3Rlc3QuY3Vy
bC5zZS9jYS9FZGVsQ3VybFJvb3QuY2VyMDgGA1UdHwQxMC8wLaAroCmGJ2h0dHA6
Ly90ZXN0LmN1cmwuc2UvY2EvRWRlbEN1cmxSb290LmNybDANBgkqhkiG9w0BAQsF
AAOCAQEAoL60eSNAl9zEyAecCgdccCnF7idm56A/z7SGKovly/yxstrjrtPdN/Wa
EtZfMPUd47iTtDADHOLQlM7boJPywlUGCXK87vlRwY8J5peOoYG2IPWLeKOm+b1C
/ddJCz2zVzHeuRsEf9SB6sy1zIYRxFIvgW8FkpKl50vYr380/RfQj7zzv/5yxmIt
kDfsGAKTWcFDbin8WDMhZ6BfA60BSxwCe/jOmqm4ODfOX+9f0/zh2QoFY/nn5tgB
WwdcWU/LTLEjjoKMiVPIEuJEAb5TnCROOemqPdl4Y8cjhX3K1LmRpb3CJqbUIsKQ
0J3OAiwEPePGnTTF+x7/ctE8EgjMxA==
-----END CERTIFICATE-----
