extensions = x509v3

[ x509v3 ]
#subjectAltName         = DNS:localhost\0h
subjectAltName          = DER:30:0d:82:0b:6c:6f:63:61:6c:68:6f:73:74:00:68
keyUsage                = keyEncipherment,digitalSignature,keyAgreement
extendedKeyUsage        = serverAuth
subjectKeyIdentifier    = hash
authorityKeyIdentifier  = keyid
basicConstraints        = CA:false
authorityInfoAccess     = @issuer_info
crlDistributionPoints   = @crl_info

[ crl_ext ]
authorityKeyIdentifier  = keyid:always
authorityInfoAccess     = @issuer_info

[ issuer_info ]
caIssuers;URI.0         = http://test.curl.se/ca/EdelCurlRoot.cer

[ crl_info ]
URI.0                   = http://test.curl.se/ca/EdelCurlRoot.crl

[ req ]
default_bits            = 1024
distinguished_name      = req_DN
default_md              = sha256
string_mask             = utf8only

[ req_DN ]
countryName             = "Country Name is Northern Nowhere"
countryName_value       = NN
organizationName        = "Organization Name"
organizationName_value  = Edel Curl Arctic Illudium Research Cloud
commonName              = "Common Name"
commonName_value        = localhost
-----BEGIN RSA PRIVATE KEY-----
MIIEowIBAAKCAQEA5ZmiDWuBZFZw1yb60eExlT6b5c9OwwYGlO4FKNaV57DLwu6j
pwCBMub4EgWETE3y7N7qDccS9hFEr/QTdG9igYVORvmqUlWP/LdnPM7DaWHSzA07
cwjl8151HFMyoj6g6arjn1LBJCUGfvAiXZc7aB6cUaxv2qMaB39EZ869OzoGmT76
UmGjnx3chCk01h8oW56g3KEdcS/sKfX3pi4JJc1wc2ud1xKO4xSlneaXc1iZ2Am2
mxX/TKIqw1FpodygzW21E9JVP922k56qHv6ferDuF45mWHjsjiHxliYDbgdTx0Ut
u3CIRg7u8IYacoBh0UhNTVC28YIF6ddDFG25kwIDAQABAoIBAQDgzdRFn4VJYPmL
L7dV2FBb+LlcAeb0POok2AhlO/X6rLhVXKMP2QaneE5cFtq6e3fnRTuV0d1W4QGH
5ktGLekdOBC0na+OfghFQK3sc+YRQJ7M/AfBUm0UJOA1o6BoCzoykAfe73/8i+QY
VbbQPEsGXzJfJZ8/S4Mo5AtuOJY/bW3Z0p0YwxQqvPqSf8HLjkjzKqWMA8UMmxcY
bNULxotr/XjoGgud+FTwXfo0ncvjFlUz+JIH7q0nN5Y+ycH8AwlkCtvHYVFfz8xi
qENYd1PVDYxjlTyDL5rL25aS5o2jmDpRos9IrrJNVBJy4RsxC6oxvGnVUgc7Pf4e
DKXihxoBAoGBAP2k7h/6dqoplZ3V8zrDF2aFzAgj1rQONX5XpzAFLYp2JLu8DELu
x5I9g3LpgNYVZLDKg7zDK9zoJegzQ4JwGUhWqaiaazX8NIejkd02lHxxSavH5r9M
6TehaXYI303sqoVVeJHEC3TCGPedOJXBXsMnR+0Mu7Rlj1AGe63vDcghAoGBAOe7
iPdHKUFX2HYGe1h4I/wsHBjGaeSMwYod/1GJVnLNn/D72lhq+V2S0hr7By+BoFIU
dUKDv6pdMIhvDYyHgH3PQKZ+M6uQQU+sh1WyqDJe9xmEiJkAFkYIr4lQU+NkbEtL
GKlz+M30N3WGvNFgxVZJ1+yEY31fBWhxeDpIp3szAoGAbLsNEUxPHjbhWl3i/Kex
GlP02PB0E4+bwuNUWjN+CEMJEClWoEK37qrL9LDAeAWHunm1629HGFW0GkwPfpUL
YYU1CX/YwbWx1wt5dfj1wjrWN/tjoVIZD630BZNcFo2Ds9Cl9OazeoPSLCOLpDbW
ppXqMWYp+PUocEe3MSKvJ8ECgYB7+6J0auZvx4hQ3XbxBpZ6PT9rIf1WAtkqBJKu
FUTjd5CzZoyT8egpYHx5YwWdLUWRpNB4HfVWOTXWSVR+c6ETrudwLOWITU4kSrK9
7zB+gsDCLl7HPXytS8hfN1MqvngScMNpJltgFeH2R3iOra/nUurr6Ikycrx5/PvO
c0DocQKBgHzqVFt0eFhgmjneTS7PdHQSK4EFAlFT1S4KpoeSiB7ZttWCwogGap/X
4xF/vCbfJXzzC+H9QU4iYsnBDF3IHig1K6nvsjHaSNvr/HIS2hmakOPTRLd6BuqK
Gkx22rQxAAzMQixQWDoN4uSE4QR1WOw7/RL7knIUg5RC6Y8M+H91
-----END RSA PRIVATE KEY-----
Certificate:
    Data:
        Version: 3 (0x2)
        Serial Number:
            81:34:c8:2d:81:f0:54:1b
    Signature Algorithm: sha256WithRSAEncryption
        Issuer:
            countryName               = NN
            organizationName          = Edel Curl Arctic Illudium Research Cloud
            commonName                = Northern Nowhere Trust Anchor
        Validity
            Not Before: Mar  6 11:19:04 2025 GMT
            Not After : Dec 31 11:19:04 2025 GMT
        Subject:
            countryName               = NN
            organizationName          = Edel Curl Arctic Illudium Research Cloud
            commonName                = localhost
        Subject Public Key Info:
            Public Key Algorithm: rsaEncryption
                RSA Public-Key: (2048 bit)
                Modulus:
                    00:e5:99:a2:0d:6b:81:64:56:70:d7:26:fa:d1:e1:
                    31:95:3e:9b:e5:cf:4e:c3:06:06:94:ee:05:28:d6:
                    95:e7:b0:cb:c2:ee:a3:a7:00:81:32:e6:f8:12:05:
                    84:4c:4d:f2:ec:de:ea:0d:c7:12:f6:11:44:af:f4:
                    13:74:6f:62:81:85:4e:46:f9:aa:52:55:8f:fc:b7:
                    67:3c:ce:c3:69:61:d2:cc:0d:3b:73:08:e5:f3:5e:
                    75:1c:53:32:a2:3e:a0:e9:aa:e3:9f:52:c1:24:25:
                    06:7e:f0:22:5d:97:3b:68:1e:9c:51:ac:6f:da:a3:
                    1a:07:7f:44:67:ce:bd:3b:3a:06:99:3e:fa:52:61:
                    a3:9f:1d:dc:84:29:34:d6:1f:28:5b:9e:a0:dc:a1:
                    1d:71:2f:ec:29:f5:f7:a6:2e:09:25:cd:70:73:6b:
                    9d:d7:12:8e:e3:14:a5:9d:e6:97:73:58:99:d8:09:
                    b6:9b:15:ff:4c:a2:2a:c3:51:69:a1:dc:a0:cd:6d:
                    b5:13:d2:55:3f:dd:b6:93:9e:aa:1e:fe:9f:7a:b0:
                    ee:17:8e:66:58:78:ec:8e:21:f1:96:26:03:6e:07:
                    53:c7:45:2d:bb:70:88:46:0e:ee:f0:86:1a:72:80:
                    61:d1:48:4d:4d:50:b6:f1:82:05:e9:d7:43:14:6d:
                    b9:93
                Exponent: 65537 (0x10001)
        X509v3 extensions:
            X509v3 Subject Alternative Name: 
                DNS:localhost
            X509v3 Key Usage: 
                Digital Signature, Key Encipherment, Key Agreement
            X509v3 Extended Key Usage: 
                TLS Web Server Authentication
            X509v3 Subject Key Identifier: 
                20:DF:65:44:5F:B3:AD:0E:E2:B7:60:20:10:7A:AC:70:90:2F:EE:1B
            X509v3 Authority Key Identifier: 
                keyid:04:2C:76:0B:2F:18:04:65:37:6D:47:14:C6:13:05:31:2E:C0:24:66

            X509v3 Basic Constraints: 
                CA:FALSE
            Authority Information Access: 
                CA Issuers - URI:http://test.curl.se/ca/EdelCurlRoot.cer

            X509v3 CRL Distribution Points: 

                Full Name:
                  URI:http://test.curl.se/ca/EdelCurlRoot.crl

    Signature Algorithm: sha256WithRSAEncryption
         eb:bb:4b:ca:59:c4:c3:f6:a0:9d:f8:3a:85:37:03:89:07:7b:
         ad:2a:03:1c:66:68:e9:c9:50:92:d0:f5:1a:a6:f5:2f:89:a7:
         4e:ef:27:09:1e:e5:91:da:84:9a:00:93:88:bd:5c:e9:a4:54:
         01:40:85:7e:e4:ea:11:bc:cf:b8:8d:89:bd:f8:7c:1d:65:30:
         12:e0:59:76:ab:6a:5c:81:3c:90:c0:0c:bb:c5:cd:a5:1d:c0:
         7f:b2:7e:9b:7c:8b:69:10:8c:7d:9b:35:67:9a:71:5c:6c:fe:
         9f:e7:cd:f0:e0:98:0c:46:68:c8:b2:f4:3a:7d:6a:1c:a0:44:
         d3:36:25:bf:b5:b5:42:f0:15:08:c0:cf:0e:1a:95:cc:de:56:
         0c:42:38:ac:b8:9f:e7:26:d8:57:53:a0:be:15:5b:66:37:a2:
         f3:31:7d:2d:f5:ab:bd:50:82:39:84:6d:45:67:be:81:66:1c:
         c1:e2:6c:56:c7:87:2f:3b:c4:3a:db:ac:3c:3e:af:e0:06:a2:
         d1:c9:06:7e:ab:a3:48:a4:6b:c3:a8:17:60:7f:05:48:31:f9:
         6e:c2:89:00:45:36:1d:0b:49:10:5e:c3:64:4b:54:c1:44:1b:
         67:df:82:50:de:92:2a:88:35:00:d9:71:04:19:59:87:a7:74:
         d0:76:ce:97
-----BEGIN CERTIFICATE-----
MIIESTCCAzGgAwIBAgIJAIE0yC2B8FQbMA0GCSqGSIb3DQEBCwUAMGgxCzAJBgNV
BAYTAk5OMTEwLwYDVQQKDChFZGVsIEN1cmwgQXJjdGljIElsbHVkaXVtIFJlc2Vh
cmNoIENsb3VkMSYwJAYDVQQDDB1Ob3J0aGVybiBOb3doZXJlIFRydXN0IEFuY2hv
cjAeFw0yNTAzMDYxMTE5MDRaFw0yNTEyMzExMTE5MDRaMFQxCzAJBgNVBAYTAk5O
MTEwLwYDVQQKDChFZGVsIEN1cmwgQXJjdGljIElsbHVkaXVtIFJlc2VhcmNoIENs
b3VkMRIwEAYDVQQDDAlsb2NhbGhvc3QwggEiMA0GCSqGSIb3DQEBAQUAA4IBDwAw
ggEKAoIBAQDlmaINa4FkVnDXJvrR4TGVPpvlz07DBgaU7gUo1pXnsMvC7qOnAIEy
5vgSBYRMTfLs3uoNxxL2EUSv9BN0b2KBhU5G+apSVY/8t2c8zsNpYdLMDTtzCOXz
XnUcUzKiPqDpquOfUsEkJQZ+8CJdlztoHpxRrG/aoxoHf0Rnzr07OgaZPvpSYaOf
HdyEKTTWHyhbnqDcoR1xL+wp9femLgklzXBza53XEo7jFKWd5pdzWJnYCbabFf9M
oirDUWmh3KDNbbUT0lU/3baTnqoe/p96sO4XjmZYeOyOIfGWJgNuB1PHRS27cIhG
Du7whhpygGHRSE1NULbxggXp10MUbbmTAgMBAAGjggEIMIIBBDAWBgNVHREEDzAN
ggtsb2NhbGhvc3QAaDALBgNVHQ8EBAMCA6gwEwYDVR0lBAwwCgYIKwYBBQUHAwEw
HQYDVR0OBBYEFCDfZURfs60O4rdgIBB6rHCQL+4bMB8GA1UdIwQYMBaAFAQsdgsv
GARlN21HFMYTBTEuwCRmMAkGA1UdEwQCMAAwQwYIKwYBBQUHAQEENzA1MDMGCCsG
AQUFBzAChidodHRwOi8vdGVzdC5jdXJsLnNlL2NhL0VkZWxDdXJsUm9vdC5jZXIw
OAYDVR0fBDEwLzAtoCugKYYnaHR0cDovL3Rlc3QuY3VybC5zZS9jYS9FZGVsQ3Vy
bFJvb3QuY3JsMA0GCSqGSIb3DQEBCwUAA4IBAQDru0vKWcTD9qCd+DqFNwOJB3ut
KgMcZmjpyVCS0PUapvUviadO7ycJHuWR2oSaAJOIvVzppFQBQIV+5OoRvM+4jYm9
+HwdZTAS4Fl2q2pcgTyQwAy7xc2lHcB/sn6bfItpEIx9mzVnmnFcbP6f583w4JgM
RmjIsvQ6fWocoETTNiW/tbVC8BUIwM8OGpXM3lYMQjisuJ/nJthXU6C+FVtmN6Lz
MX0t9au9UII5hG1FZ76BZhzB4mxWx4cvO8Q626w8Pq/gBqLRyQZ+q6NIpGvDqBdg
fwVIMfluwokARTYdC0kQXsNkS1TBRBtn34JQ3pIqiDUA2XEEGVmHp3TQds6X
-----END CERTIFICATE-----
