Certificate:
    Data:
        Version: 3 (0x2)
        Serial Number:
            81:34:c8:2d:81:f0:54:21
    Signature Algorithm: sha256WithRSAEncryption
        Issuer:
            countryName               = NN
            organizationName          = Edel Curl Arctic Illudium Research Cloud
            commonName                = Northern Nowhere Trust Anchor
        Validity
            Not Before: Mar  6 11:51:48 2025 GMT
            Not After : Dec 31 11:51:48 2025 GMT
        Subject:
            countryName               = NN
            organizationName          = Edel Curl Arctic Illudium Research Cloud
            commonName                = localhost
        Subject Public Key Info:
            Public Key Algorithm: rsaEncryption
                RSA Public-Key: (2048 bit)
                Modulus:
                    00:bd:d7:58:68:62:0c:68:34:df:a2:1d:d9:34:fc:
                    f1:45:bf:cc:e3:57:38:e6:d3:07:fc:65:e1:b3:28:
                    ad:d6:2c:3b:2e:a9:6a:b9:07:e7:66:1f:b8:a0:c2:
                    75:1d:31:84:3e:5d:98:d3:37:bb:a0:96:97:7f:f7:
                    17:5e:89:ad:6e:bf:8c:0d:ef:c2:7c:f5:3b:76:0a:
                    84:30:ef:bf:2f:c0:8a:a6:50:33:e1:a4:00:bd:0c:
                    0c:79:04:09:d1:45:09:fe:b2:4b:a3:cf:1e:3b:65:
                    b4:5a:a5:a4:86:e0:d6:95:c0:a9:d7:58:ec:8e:4e:
                    72:3f:33:77:f3:3d:b5:6d:63:28:85:8a:49:e5:20:
                    ef:56:9a:ad:f3:9d:e2:b6:ca:66:dd:06:e2:cc:09:
                    86:36:c2:d0:1f:3e:33:bc:bc:c5:23:f7:2a:4c:f0:
                    5b:4f:3c:60:f4:33:f3:dd:c8:ad:83:d2:45:9f:6d:
                    0d:cb:b6:29:94:b8:df:3b:c3:73:7e:95:ef:e6:68:
                    e7:c6:22:79:4a:69:7c:85:4a:88:9d:9a:90:71:42:
                    79:73:3e:b2:ed:e2:0c:4e:53:85:5a:de:e7:85:37:
                    6f:0e:21:e1:f1:f0:1d:09:ec:0f:fd:69:5f:d9:74:
                    71:35:4d:02:73:f3:2d:3e:9c:58:f5:48:d6:63:b4:
                    fb:85
                Exponent: 65537 (0x10001)
        X509v3 extensions:
            X509v3 Subject Alternative Name: 
                DNS:localhost
            X509v3 Key Usage: 
                Digital Signature, Key Encipherment, Key Agreement
            X509v3 Extended Key Usage: 
                TLS Web Server Authentication
            X509v3 Subject Key Identifier: 
                F7:A5:D0:5C:C7:C2:37:AA:5D:7A:76:0B:17:61:70:C9:5D:B9:C9:55
            X509v3 Authority Key Identifier: 
                keyid:9D:2B:CE:95:BF:D8:22:91:A2:E5:AD:FE:79:0E:E9:23:E1:4D:28:32

            X509v3 Basic Constraints: 
                CA:FALSE
            Authority Information Access: 
                CA Issuers - URI:http://test.curl.se/ca/EdelCurlRoot.cer

            X509v3 CRL Distribution Points: 

                Full Name:
                  URI:http://test.curl.se/ca/EdelCurlRoot.crl

    Signature Algorithm: sha256WithRSAEncryption
         28:61:05:e4:55:30:48:40:12:df:f6:fb:64:5e:10:6d:5c:48:
         d2:ef:b2:c2:27:28:f0:a1:88:5a:c8:ae:cb:87:12:60:04:aa:
         e0:1e:4c:c3:4c:8e:d5:8a:f8:8c:c8:3f:e5:d7:06:8a:3d:40:
         c0:ea:03:dd:9c:d6:f5:68:67:71:51:4f:8d:80:1f:d3:53:09:
         5b:78:be:dc:6d:98:68:c0:38:d2:10:ad:56:95:9c:b7:56:e2:
         ec:98:b7:6f:3c:f4:b5:1e:94:7b:3d:e2:f7:a4:89:b5:89:61:
         29:45:ea:05:8d:23:a3:ad:b6:ef:97:21:91:ce:f2:7d:12:3a:
         e3:fc:e0:eb:85:18:eb:af:b7:51:81:2b:a2:60:01:60:d9:31:
         96:cb:9c:e3:b9:29:38:f7:51:7d:40:bf:87:6e:42:fa:74:c0:
         9b:cb:1a:95:63:30:a7:41:b4:65:e3:cc:87:2c:01:d9:00:d8:
         e3:62:ab:d2:64:37:43:c2:16:36:0f:ae:a6:79:00:d6:37:37:
         ff:31:6a:77:15:cc:ff:1b:52:33:9b:04:8e:f5:5b:a6:52:60:
         e8:1c:b8:3e:df:b9:d5:67:ba:3d:23:d6:5a:07:cd:e8:e2:01:
         0f:57:ea:b0:fb:27:a4:2a:1b:f0:16:01:90:cc:9e:32:13:cc:
         f1:bf:cb:80
-----BEGIN CERTIFICATE-----
MIIESTCCAzGgAwIBAgIJAIE0yC2B8FQhMA0GCSqGSIb3DQEBCwUAMGgxCzAJBgNV
BAYTAk5OMTEwLwYDVQQKDChFZGVsIEN1cmwgQXJjdGljIElsbHVkaXVtIFJlc2Vh
cmNoIENsb3VkMSYwJAYDVQQDDB1Ob3J0aGVybiBOb3doZXJlIFRydXN0IEFuY2hv
cjAeFw0yNTAzMDYxMTUxNDhaFw0yNTEyMzExMTUxNDhaMFQxCzAJBgNVBAYTAk5O
MTEwLwYDVQQKDChFZGVsIEN1cmwgQXJjdGljIElsbHVkaXVtIFJlc2VhcmNoIENs
b3VkMRIwEAYDVQQDDAlsb2NhbGhvc3QwggEiMA0GCSqGSIb3DQEBAQUAA4IBDwAw
ggEKAoIBAQC911hoYgxoNN+iHdk0/PFFv8zjVzjm0wf8ZeGzKK3WLDsuqWq5B+dm
H7igwnUdMYQ+XZjTN7uglpd/9xdeia1uv4wN78J89Tt2CoQw778vwIqmUDPhpAC9
DAx5BAnRRQn+skujzx47ZbRapaSG4NaVwKnXWOyOTnI/M3fzPbVtYyiFiknlIO9W
mq3zneK2ymbdBuLMCYY2wtAfPjO8vMUj9ypM8FtPPGD0M/PdyK2D0kWfbQ3LtimU
uN87w3N+le/maOfGInlKaXyFSoidmpBxQnlzPrLt4gxOU4Va3ueFN28OIeHx8B0J
7A/9aV/ZdHE1TQJz8y0+nFj1SNZjtPuFAgMBAAGjggEIMIIBBDAWBgNVHREEDzAN
ggtsb2NhbGhvc3QAaDALBgNVHQ8EBAMCA6gwEwYDVR0lBAwwCgYIKwYBBQUHAwEw
HQYDVR0OBBYEFPel0FzHwjeqXXp2CxdhcMlduclVMB8GA1UdIwQYMBaAFJ0rzpW/
2CKRouWt/nkO6SPhTSgyMAkGA1UdEwQCMAAwQwYIKwYBBQUHAQEENzA1MDMGCCsG
AQUFBzAChidodHRwOi8vdGVzdC5jdXJsLnNlL2NhL0VkZWxDdXJsUm9vdC5jZXIw
OAYDVR0fBDEwLzAtoCugKYYnaHR0cDovL3Rlc3QuY3VybC5zZS9jYS9FZGVsQ3Vy
bFJvb3QuY3JsMA0GCSqGSIb3DQEBCwUAA4IBAQAoYQXkVTBIQBLf9vtkXhBtXEjS
77LCJyjwoYhayK7LhxJgBKrgHkzDTI7ViviMyD/l1waKPUDA6gPdnNb1aGdxUU+N
gB/TUwlbeL7cbZhowDjSEK1WlZy3VuLsmLdvPPS1HpR7PeL3pIm1iWEpReoFjSOj
rbbvlyGRzvJ9Ejrj/ODrhRjrr7dRgSuiYAFg2TGWy5zjuSk491F9QL+HbkL6dMCb
yxqVYzCnQbRl48yHLAHZANjjYqvSZDdDwhY2D66meQDWNzf/MWp3Fcz/G1IzmwSO
9VumUmDoHLg+37nVZ7o9I9ZaB83o4gEPV+qw+yekKhvwFgGQzJ4yE8zxv8uA
-----END CERTIFICATE-----
