Certificate:
    Data:
        Version: 3 (0x2)
        Serial Number:
            a4:fc:b0:25:25:d8:cc:a7
    Signature Algorithm: sha256WithRSAEncryption
        Issuer:
            countryName               = NN
            organizationName          = Edel Curl Arctic Illudium Research Cloud
            commonName                = Northern Nowhere Trust Anchor
        Validity
            Not Before: Mar  6 11:19:03 2025 GMT
            Not After : Aug  9 11:19:03 2041 GMT
        Subject:
            countryName               = NN
            organizationName          = Edel Curl Arctic Illudium Research Cloud
            commonName                = Northern Nowhere Trust Anchor
        Subject Public Key Info:
            Public Key Algorithm: rsaEncryption
                RSA Public-Key: (2048 bit)
                Modulus:
                    00:f8:05:f2:66:d6:17:eb:b0:66:c3:53:79:3b:ea:
                    bf:54:65:d8:18:24:c2:51:fb:07:79:1a:86:be:88:
                    61:44:9c:35:71:71:29:56:f5:3a:66:62:2f:67:3e:
                    aa:93:f5:fa:69:f2:16:ea:ce:2b:a6:dd:80:7f:8f:
                    97:b8:64:60:b9:bc:8c:8c:2b:3d:79:65:78:5d:25:
                    61:91:78:2e:d0:9d:fc:79:ab:a1:2d:55:30:60:56:
                    2f:a8:49:2e:63:8b:f8:3c:d1:bb:c7:24:7f:9c:b9:
                    44:a2:15:ff:71:cf:ba:6c:bb:b2:77:de:ac:06:88:
                    1b:9e:e6:55:95:2d:d2:20:38:ab:71:c9:55:83:61:
                    be:90:1d:7f:47:3f:ba:01:04:37:ea:e7:10:4b:17:
                    e1:5a:c1:46:a1:56:8a:e5:66:42:c3:87:fe:48:2e:
                    46:36:43:51:59:8b:ad:04:e6:4b:de:7a:90:72:12:
                    38:49:e9:6a:b8:e8:a7:42:2a:89:aa:c6:4e:bf:b1:
                    bb:bc:cd:d9:82:24:ed:57:cc:a3:84:37:ea:0a:df:
                    aa:b9:04:77:e0:86:a2:47:aa:ce:df:27:63:b2:da:
                    c0:e4:b1:b8:97:64:5e:e1:a2:24:93:b3:bb:14:73:
                    26:5e:fe:5f:e9:53:eb:bf:c0:df:1f:5b:56:84:d2:
                    49:5b
                Exponent: 65537 (0x10001)
        X509v3 extensions:
            X509v3 Basic Constraints: critical
                CA:TRUE
            X509v3 Key Usage: critical
                Certificate Sign, CRL Sign
            X509v3 Subject Key Identifier: 
                04:2C:76:0B:2F:18:04:65:37:6D:47:14:C6:13:05:31:2E:C0:24:66
            X509v3 Authority Key Identifier: 
                keyid:04:2C:76:0B:2F:18:04:65:37:6D:47:14:C6:13:05:31:2E:C0:24:66

            Authority Information Access: 
                CA Issuers - URI:http://test.curl.se/ca/EdelCurlRoot.cer

            X509v3 CRL Distribution Points: 

                Full Name:
                  URI:http://test.curl.se/ca/EdelCurlRoot.crl

    Signature Algorithm: sha256WithRSAEncryption
         2d:aa:a6:c4:ff:42:1a:d4:13:5e:ee:1e:a1:24:ed:b6:b7:fd:
         35:c4:f2:cd:85:de:b5:4f:59:18:44:1e:32:8c:fc:a1:48:27:
         7b:a7:05:35:f7:f9:33:b1:cf:81:df:2a:7d:7e:27:ca:0a:a3:
         dd:96:44:f2:00:27:7b:2b:0f:03:62:33:0a:c6:16:af:ee:5c:
         7b:03:31:31:2f:84:57:d7:bc:8c:38:fa:8d:b9:9e:e3:c3:0a:
         b3:42:71:8a:fd:0d:2b:ba:c4:57:9e:ee:2a:7f:da:cf:19:f4:
         58:2a:f1:9b:0e:46:05:37:bf:e5:2a:23:f0:2e:d9:21:dd:83:
         cf:73:53:88:30:d8:23:4f:fd:0c:e0:21:d5:7b:d6:cf:5b:94:
         7f:39:50:f4:26:5a:84:92:ee:62:7b:cc:8d:2a:49:6b:ec:e9:
         54:90:f5:93:5e:9a:1d:13:c3:3d:f2:57:04:91:7b:b2:9c:52:
         d3:ae:2b:c4:61:15:50:27:9f:dc:28:b1:30:72:50:ca:09:8f:
         0a:94:f2:56:90:d1:87:16:b3:b5:36:57:6a:e1:65:9d:04:21:
         01:a9:ea:c4:b0:58:db:14:61:25:49:e7:df:41:1c:47:54:44:
         c8:1d:f3:f7:e0:75:cc:79:dc:aa:a3:7d:52:b7:9b:6f:ca:10:
         bf:9c:e5:fd
-----BEGIN CERTIFICATE-----
MIIENzCCAx+gAwIBAgIJAKT8sCUl2MynMA0GCSqGSIb3DQEBCwUAMGgxCzAJBgNV
BAYTAk5OMTEwLwYDVQQKDChFZGVsIEN1cmwgQXJjdGljIElsbHVkaXVtIFJlc2Vh
cmNoIENsb3VkMSYwJAYDVQQDDB1Ob3J0aGVybiBOb3doZXJlIFRydXN0IEFuY2hv
cjAeFw0yNTAzMDYxMTE5MDNaFw00MTA4MDkxMTE5MDNaMGgxCzAJBgNVBAYTAk5O
MTEwLwYDVQQKDChFZGVsIEN1cmwgQXJjdGljIElsbHVkaXVtIFJlc2VhcmNoIENs
b3VkMSYwJAYDVQQDDB1Ob3J0aGVybiBOb3doZXJlIFRydXN0IEFuY2hvcjCCASIw
DQYJKoZIhvcNAQEBBQADggEPADCCAQoCggEBAPgF8mbWF+uwZsNTeTvqv1Rl2Bgk
wlH7B3kahr6IYUScNXFxKVb1OmZiL2c+qpP1+mnyFurOK6bdgH+Pl7hkYLm8jIwr
PXlleF0lYZF4LtCd/HmroS1VMGBWL6hJLmOL+DzRu8ckf5y5RKIV/3HPumy7snfe
rAaIG57mVZUt0iA4q3HJVYNhvpAdf0c/ugEEN+rnEEsX4VrBRqFWiuVmQsOH/kgu
RjZDUVmLrQTmS956kHISOEnparjop0IqiarGTr+xu7zN2YIk7VfMo4Q36grfqrkE
d+CGokeqzt8nY7LawOSxuJdkXuGiJJOzuxRzJl7+X+lT67/A3x9bVoTSSVsCAwEA
AaOB4zCB4DAPBgNVHRMBAf8EBTADAQH/MA4GA1UdDwEB/wQEAwIBBjAdBgNVHQ4E
FgQUBCx2Cy8YBGU3bUcUxhMFMS7AJGYwHwYDVR0jBBgwFoAUBCx2Cy8YBGU3bUcU
xhMFMS7AJGYwQwYIKwYBBQUHAQEENzA1MDMGCCsGAQUFBzAChidodHRwOi8vdGVz
dC5jdXJsLnNlL2NhL0VkZWxDdXJsUm9vdC5jZXIwOAYDVR0fBDEwLzAtoCugKYYn
aHR0cDovL3Rlc3QuY3VybC5zZS9jYS9FZGVsQ3VybFJvb3QuY3JsMA0GCSqGSIb3
DQEBCwUAA4IBAQAtqqbE/0Ia1BNe7h6hJO22t/01xPLNhd61T1kYRB4yjPyhSCd7
pwU19/kzsc+B3yp9fifKCqPdlkTyACd7Kw8DYjMKxhav7lx7AzExL4RX17yMOPqN
uZ7jwwqzQnGK/Q0rusRXnu4qf9rPGfRYKvGbDkYFN7/lKiPwLtkh3YPPc1OIMNgj
T/0M4CHVe9bPW5R/OVD0JlqEku5ie8yNKklr7OlUkPWTXpodE8M98lcEkXuynFLT
rivEYRVQJ5/cKLEwclDKCY8KlPJWkNGHFrO1Nldq4WWdBCEBqerEsFjbFGElSeff
QRxHVETIHfP34HXMedyqo31St5tvyhC/nOX9
-----END CERTIFICATE-----
