Certificate:
    Data:
        Version: 3 (0x2)
        Serial Number:
            81:34:c8:2d:81:f0:54:22
    Signature Algorithm: sha256WithRSAEncryption
        Issuer:
            countryName               = NN
            organizationName          = Edel Curl Arctic Illudium Research Cloud
            commonName                = Northern Nowhere Trust Anchor
        Validity
            Not Before: Mar  6 11:51:48 2025 GMT
            Not After : Dec 31 11:51:48 2025 GMT
        Subject:
            countryName               = NN
            organizationName          = Edel Curl Arctic Illudium Research Cloud
            commonName                = localhost.nn
        Subject Public Key Info:
            Public Key Algorithm: rsaEncryption
                RSA Public-Key: (2048 bit)
                Modulus:
                    00:b5:4b:5e:a7:57:ac:05:72:11:73:eb:e1:c9:18:
                    3c:44:cf:98:c1:00:26:4b:db:ad:1f:2c:32:e5:4b:
                    e8:e3:00:31:8c:24:84:42:f3:7a:53:7f:e8:c1:89:
                    08:8a:9b:b6:cc:d2:68:17:21:4e:2d:03:ae:58:4e:
                    71:ea:46:8d:a2:85:18:0e:33:11:6b:ed:82:b3:f0:
                    ef:d9:55:7c:22:f3:cf:e3:6a:e0:55:5c:34:c0:44:
                    64:ca:bb:80:46:d6:0f:4a:c9:9d:60:fb:ff:d7:20:
                    4f:ba:76:09:b0:ce:96:66:e4:7f:90:c1:c3:ae:d2:
                    b6:6b:f2:06:7d:d0:77:f2:8b:25:e9:01:dc:9e:e9:
                    1f:97:cd:19:6e:ef:5d:b2:eb:61:aa:33:c3:0a:f0:
                    d0:58:c3:2a:57:85:a9:f7:37:ec:3a:a5:c5:56:46:
                    b4:df:71:3f:1d:c0:29:e1:0d:c5:17:cf:bb:bc:cc:
                    c9:86:d8:6e:93:4a:63:8e:46:d1:03:d1:18:23:f6:
                    f5:32:88:b3:e1:c0:4f:30:16:15:b7:e7:64:99:e1:
                    59:54:2d:1d:ac:7f:74:3f:9b:da:c5:4d:3f:3b:2a:
                    92:36:e4:3e:af:0a:d8:51:d2:17:a4:7f:d0:96:8e:
                    79:27:85:db:75:dd:36:7b:ac:0a:d3:b0:25:db:a0:
                    4a:b5
                Exponent: 65537 (0x10001)
        X509v3 extensions:
            X509v3 Subject Alternative Name: 
                DNS:localhost, DNS:localhost1, DNS:localhost2
            X509v3 Key Usage: 
                Digital Signature, Key Encipherment, Key Agreement
            X509v3 Extended Key Usage: 
                TLS Web Server Authentication
            X509v3 Subject Key Identifier: 
                BD:FE:8D:9C:5D:FF:AC:9B:EC:06:1C:24:60:6A:DA:C1:58:54:40:40
            X509v3 Authority Key Identifier: 
                keyid:9D:2B:CE:95:BF:D8:22:91:A2:E5:AD:FE:79:0E:E9:23:E1:4D:28:32

            X509v3 Basic Constraints: 
                CA:FALSE
            Authority Information Access: 
                CA Issuers - URI:http://test.curl.se/ca/EdelCurlRoot.cer

            X509v3 CRL Distribution Points: 

                Full Name:
                  URI:http://test.curl.se/ca/EdelCurlRoot.crl

    Signature Algorithm: sha256WithRSAEncryption
         01:5f:58:90:09:4c:e5:f2:f6:0c:73:ac:43:75:34:79:7c:5a:
         2b:e6:43:33:40:1b:5e:97:75:09:44:98:dd:8b:61:d2:8a:d2:
         be:d8:04:10:5c:eb:82:11:23:8f:dd:53:51:fa:dc:07:6a:d3:
         f2:8b:9b:63:1b:22:6b:07:b6:02:7c:dd:e7:ea:33:34:da:ea:
         48:22:ee:c8:bb:26:d3:b8:7e:f7:6b:46:07:ea:6a:1a:20:94:
         7a:3f:2a:a1:5a:c5:e7:95:58:b9:9c:95:9f:db:2f:1d:ab:fe:
         1b:d8:97:88:29:28:05:86:15:57:cc:52:25:26:8c:84:48:ea:
         33:d7:3c:32:4c:58:96:34:2e:3c:27:2d:72:24:c3:96:93:42:
         48:c4:9f:c5:b3:29:56:30:e2:e0:d1:53:e2:f5:07:71:b1:74:
         6d:bc:8c:c8:30:ca:90:74:8a:61:49:13:99:7b:77:1d:d0:91:
         7f:ad:11:73:ab:ce:0b:8d:67:65:38:7e:a7:5f:f1:76:14:4e:
         90:9b:04:ec:e9:27:45:45:b5:45:02:2c:3b:e4:37:46:5e:93:
         fc:b5:19:c7:4f:a3:cb:df:25:7d:6f:7e:31:93:3c:4a:9f:71:
         19:9b:ef:d5:01:6c:48:40:7f:91:16:82:c8:71:29:2e:2a:4e:
         a0:0e:99:b3
-----BEGIN CERTIFICATE-----
MIIEYjCCA0qgAwIBAgIJAIE0yC2B8FQiMA0GCSqGSIb3DQEBCwUAMGgxCzAJBgNV
BAYTAk5OMTEwLwYDVQQKDChFZGVsIEN1cmwgQXJjdGljIElsbHVkaXVtIFJlc2Vh
cmNoIENsb3VkMSYwJAYDVQQDDB1Ob3J0aGVybiBOb3doZXJlIFRydXN0IEFuY2hv
cjAeFw0yNTAzMDYxMTUxNDhaFw0yNTEyMzExMTUxNDhaMFcxCzAJBgNVBAYTAk5O
MTEwLwYDVQQKDChFZGVsIEN1cmwgQXJjdGljIElsbHVkaXVtIFJlc2VhcmNoIENs
b3VkMRUwEwYDVQQDDAxsb2NhbGhvc3Qubm4wggEiMA0GCSqGSIb3DQEBAQUAA4IB
DwAwggEKAoIBAQC1S16nV6wFchFz6+HJGDxEz5jBACZL260fLDLlS+jjADGMJIRC
83pTf+jBiQiKm7bM0mgXIU4tA65YTnHqRo2ihRgOMxFr7YKz8O/ZVXwi88/jauBV
XDTARGTKu4BG1g9KyZ1g+//XIE+6dgmwzpZm5H+QwcOu0rZr8gZ90HfyiyXpAdye
6R+XzRlu712y62GqM8MK8NBYwypXhan3N+w6pcVWRrTfcT8dwCnhDcUXz7u8zMmG
2G6TSmOORtED0Rgj9vUyiLPhwE8wFhW352SZ4VlULR2sf3Q/m9rFTT87KpI25D6v
CthR0hekf9CWjnknhdt13TZ7rArTsCXboEq1AgMBAAGjggEeMIIBGjAsBgNVHREE
JTAjgglsb2NhbGhvc3SCCmxvY2FsaG9zdDGCCmxvY2FsaG9zdDIwCwYDVR0PBAQD
AgOoMBMGA1UdJQQMMAoGCCsGAQUFBwMBMB0GA1UdDgQWBBS9/o2cXf+sm+wGHCRg
atrBWFRAQDAfBgNVHSMEGDAWgBSdK86Vv9gikaLlrf55Dukj4U0oMjAJBgNVHRME
AjAAMEMGCCsGAQUFBwEBBDcwNTAzBggrBgEFBQcwAoYnaHR0cDovL3Rlc3QuY3Vy
bC5zZS9jYS9FZGVsQ3VybFJvb3QuY2VyMDgGA1UdHwQxMC8wLaAroCmGJ2h0dHA6
Ly90ZXN0LmN1cmwuc2UvY2EvRWRlbEN1cmxSb290LmNybDANBgkqhkiG9w0BAQsF
AAOCAQEAAV9YkAlM5fL2DHOsQ3U0eXxaK+ZDM0AbXpd1CUSY3Yth0orSvtgEEFzr
ghEjj91TUfrcB2rT8oubYxsiawe2Anzd5+ozNNrqSCLuyLsm07h+92tGB+pqGiCU
ej8qoVrF55VYuZyVn9svHav+G9iXiCkoBYYVV8xSJSaMhEjqM9c8MkxYljQuPCct
ciTDlpNCSMSfxbMpVjDi4NFT4vUHcbF0bbyMyDDKkHSKYUkTmXt3HdCRf60Rc6vO
C41nZTh+p1/xdhROkJsE7OknRUW1RQIsO+Q3Rl6T/LUZx0+jy98lfW9+MZM8Sp9x
GZvv1QFsSEB/kRaCyHEpLipOoA6Zsw==
-----END CERTIFICATE-----
