extensions = x509v3

[ x509v3 ]
subjectAltName          = DNS:localhost1,DNS:localhost2,DNS:localhost
keyUsage                = keyEncipherment,digitalSignature,keyAgreement
extendedKeyUsage        = serverAuth
subjectKeyIdentifier    = hash
authorityKeyIdentifier  = keyid
basicConstraints        = CA:false
authorityInfoAccess     = @issuer_info
crlDistributionPoints   = @crl_info

[ crl_ext ]
authorityKeyIdentifier  = keyid:always
authorityInfoAccess     = @issuer_info

[ issuer_info ]
caIssuers;URI.0         = http://test.curl.se/ca/EdelCurlRoot.cer

[ crl_info ]
URI.0                   = http://test.curl.se/ca/EdelCurlRoot.crl

[ req ]
default_bits            = 1024
distinguished_name      = req_DN
default_md              = sha256
string_mask             = utf8only

[ req_DN ]
countryName             = "Country Name is Northern Nowhere"
countryName_value       = NN
organizationName        = "Organization Name"
organizationName_value  = Edel Curl Arctic Illudium Research Cloud
commonName              = "Common Name"
commonName_value        = localhost.nn
-----BEGIN RSA PRIVATE KEY-----
MIIEowIBAAKCAQEAym1xonq7EvbAw8m/ZW/Lo3kf3VK9jg5y6o0HwbWmc8lm5QDh
7TKI2GmdkQijryCdGBap4BkYL3RH57xDg/ffCDMKocSvT+X4JtaWEGFH4If3JGkX
fOu2ARNZC2EQRiUE4IxQiDUmZM7gIOotO/6YyPzxlHrH05NviTS1Yq3RZyuxs6nK
Wo1kugT1Z1BeczWaSweP9UqGNp7kHcPkh4wAQ9PGDee+B0DN7m6xux3Kk8hX9KfV
Zq+li3y8KESwG+lr5ft97lS+zJPfzqtfacLPBL/fXLTiswGFW/asEW9XAK8+taTT
egiWS0HMaAlMnjfPC/xSy2TVlrnCHpPy2gxwqQIDAQABAoIBAG6l+jpVGdLY3C9p
JNyeilJWEAvbgU+YKEp7QmUpFM4vpbXBkL0mJVUeDgnMDiTZD+Wt5bdgIC84QWGz
L7iAEgKaW9Jm/2kODGG2ZBqaAj8CMx5M75DSCw91cvPcX5fn/k17hT2ex9jMmAiF
2Kn1lbAvSyHdJ0NIUOxPymIhHthkOgVLDBePx17YY+TvNV5Q7VF89wH2ip7btCdP
Zkf831V8XBHTmb9QiA01txXZBUYyDfC1qiU6dg/R56zuMVBbyxqA7jJwanDhOdLP
prhJHo7Ic6yha6kPI1crPcJ9Uves4M2fcRYVh3NzSYGN16GKyRBTrbPh+9QRD5dA
fPrvnW0CgYEA4/TX009DWuAmiT+hR/b5pjORvIOnAsVyXDKmVrzCdQ9EgW+VbR6a
5vPEm4auN2CV9xKtzKVo2nVKHHfuaM3sdaa2dP7yXCwhQT/gfoP77MYJ9aKw754L
SCErdVsc59u3YAn6o5Sk9n1LiqGT1aGlKgsaEPrJsJXoWJoWshVHvX8CgYEA41Sa
4toCdk/0g22S0Kt7qjX1WrVlQEzcjqSXotlvnPQ7N5FsyBoE/NO7uozZM+rjgvGD
9TJMF//v+0MSZQPJstWgX4uC2f0HnRQH51Y3kvVC62JLaPEGW7aeq/LDrW5cfiDa
tlIB+V5cYl7STOR5A4arqNhu9EecChAZCEnvNdcCgYBQBX1WIncEibc9aubU+m/8
1hGM2bJhGKrijq0xuaWRrkBgJ6mO2rWJ6XzVE9xIeFFsoFP+iPpb5dyUTc2VYORn
EJTwUScHED7ERwYpo29mWMbaQbhXBWX0diBpXAizo7+lqRshHWcjWCySh9H7pnjy
X19RIph2sskTgVQCQ9IhRQKBgEMofm1gHHQZYNHm8AWHc4wwTqCSkCvzyQC27Tkl
5UxH9qqO4sUmsqyCXKZa79vfm4DWmrY4OrSoXpwrD2caPF8Br1QqoeiGUNZ90Wvt
U5OtsyxYqJCDC+7SP4PqvxYgUWDNke9kwMKLtt00yAoBQSLiiRnjfrvZ3+Y1JUAG
n42XAoGBAL122wLSCLNuYjcZoQ+scTNmIOf9UV2tAudui/ALLPBL/NjGagisA+cQ
HlnpzuofsWz6SqBxdZEH6rajp0q5GJ5kj6E7odd3ArKqp7BY7UqoId9bpXgmigIL
Jhpje0SvYJ/9DDlHTjO1xGOG0WFlztb1x0iZxMFMXY/d/XZQQdzm
-----END RSA PRIVATE KEY-----
Certificate:
    Data:
        Version: 3 (0x2)
        Serial Number:
            81:34:c8:2d:81:f0:54:23
    Signature Algorithm: sha256WithRSAEncryption
        Issuer:
            countryName               = NN
            organizationName          = Edel Curl Arctic Illudium Research Cloud
            commonName                = Northern Nowhere Trust Anchor
        Validity
            Not Before: Mar  6 11:51:48 2025 GMT
            Not After : Dec 31 11:51:48 2025 GMT
        Subject:
            countryName               = NN
            organizationName          = Edel Curl Arctic Illudium Research Cloud
            commonName                = localhost.nn
        Subject Public Key Info:
            Public Key Algorithm: rsaEncryption
                RSA Public-Key: (2048 bit)
                Modulus:
                    00:ca:6d:71:a2:7a:bb:12:f6:c0:c3:c9:bf:65:6f:
                    cb:a3:79:1f:dd:52:bd:8e:0e:72:ea:8d:07:c1:b5:
                    a6:73:c9:66:e5:00:e1:ed:32:88:d8:69:9d:91:08:
                    a3:af:20:9d:18:16:a9:e0:19:18:2f:74:47:e7:bc:
                    43:83:f7:df:08:33:0a:a1:c4:af:4f:e5:f8:26:d6:
                    96:10:61:47:e0:87:f7:24:69:17:7c:eb:b6:01:13:
                    59:0b:61:10:46:25:04:e0:8c:50:88:35:26:64:ce:
                    e0:20:ea:2d:3b:fe:98:c8:fc:f1:94:7a:c7:d3:93:
                    6f:89:34:b5:62:ad:d1:67:2b:b1:b3:a9:ca:5a:8d:
                    64:ba:04:f5:67:50:5e:73:35:9a:4b:07:8f:f5:4a:
                    86:36:9e:e4:1d:c3:e4:87:8c:00:43:d3:c6:0d:e7:
                    be:07:40:cd:ee:6e:b1:bb:1d:ca:93:c8:57:f4:a7:
                    d5:66:af:a5:8b:7c:bc:28:44:b0:1b:e9:6b:e5:fb:
                    7d:ee:54:be:cc:93:df:ce:ab:5f:69:c2:cf:04:bf:
                    df:5c:b4:e2:b3:01:85:5b:f6:ac:11:6f:57:00:af:
                    3e:b5:a4:d3:7a:08:96:4b:41:cc:68:09:4c:9e:37:
                    cf:0b:fc:52:cb:64:d5:96:b9:c2:1e:93:f2:da:0c:
                    70:a9
                Exponent: 65537 (0x10001)
        X509v3 extensions:
            X509v3 Subject Alternative Name: 
                DNS:localhost1, DNS:localhost2, DNS:localhost
            X509v3 Key Usage: 
                Digital Signature, Key Encipherment, Key Agreement
            X509v3 Extended Key Usage: 
                TLS Web Server Authentication
            X509v3 Subject Key Identifier: 
                D6:04:68:12:9C:5A:27:70:6B:D6:89:55:C1:6B:11:78:DD:74:D8:32
            X509v3 Authority Key Identifier: 
                keyid:9D:2B:CE:95:BF:D8:22:91:A2:E5:AD:FE:79:0E:E9:23:E1:4D:28:32

            X509v3 Basic Constraints: 
                CA:FALSE
            Authority Information Access: 
                CA Issuers - URI:http://test.curl.se/ca/EdelCurlRoot.cer

            X509v3 CRL Distribution Points: 

                Full Name:
                  URI:http://test.curl.se/ca/EdelCurlRoot.crl

    Signature Algorithm: sha256WithRSAEncryption
         60:7a:35:3f:a7:9b:44:14:cf:8a:9d:38:46:3c:7a:93:43:19:
         9d:ed:f3:21:32:50:7a:f8:b4:e6:90:d1:5e:26:75:1c:fd:ed:
         64:b2:fe:5a:9c:96:f6:5b:2d:df:86:7d:4c:87:fa:8f:1d:13:
         67:f2:f5:91:aa:f9:1b:c3:f7:54:da:17:43:49:00:ad:9e:55:
         53:43:c1:30:4e:6b:9e:f6:99:26:b1:fa:35:85:d5:d1:70:88:
         30:87:8e:d3:91:b9:85:fa:b8:e2:31:06:9c:17:c8:2a:2f:9b:
         e6:e8:5c:c7:6e:57:36:f5:c7:78:a2:9b:01:ef:8d:d5:38:ec:
         1f:f0:ee:7f:d4:0b:b8:82:1d:01:3a:65:46:47:ba:58:9f:d1:
         4d:95:18:17:e4:23:4a:76:54:c6:70:5d:fd:ac:f2:83:1d:ed:
         66:2b:a2:97:28:aa:e3:7f:bd:f2:02:8b:2f:43:fe:c1:74:36:
         8f:87:60:de:51:0b:44:0a:c4:98:b6:4d:94:e5:ec:ce:72:25:
         66:66:8e:1c:86:aa:30:5c:57:75:8a:28:eb:b3:51:93:84:45:
         6a:f7:ce:52:ac:1b:a8:0d:37:df:e4:60:a2:96:18:cf:29:66:
         a9:e2:08:52:e6:2a:3a:29:8b:3a:28:b1:df:4d:d4:0c:b6:9b:
         e2:40:b2:33
-----BEGIN CERTIFICATE-----
MIIEYjCCA0qgAwIBAgIJAIE0yC2B8FQjMA0GCSqGSIb3DQEBCwUAMGgxCzAJBgNV
BAYTAk5OMTEwLwYDVQQKDChFZGVsIEN1cmwgQXJjdGljIElsbHVkaXVtIFJlc2Vh
cmNoIENsb3VkMSYwJAYDVQQDDB1Ob3J0aGVybiBOb3doZXJlIFRydXN0IEFuY2hv
cjAeFw0yNTAzMDYxMTUxNDhaFw0yNTEyMzExMTUxNDhaMFcxCzAJBgNVBAYTAk5O
MTEwLwYDVQQKDChFZGVsIEN1cmwgQXJjdGljIElsbHVkaXVtIFJlc2VhcmNoIENs
b3VkMRUwEwYDVQQDDAxsb2NhbGhvc3Qubm4wggEiMA0GCSqGSIb3DQEBAQUAA4IB
DwAwggEKAoIBAQDKbXGiersS9sDDyb9lb8ujeR/dUr2ODnLqjQfBtaZzyWblAOHt
MojYaZ2RCKOvIJ0YFqngGRgvdEfnvEOD998IMwqhxK9P5fgm1pYQYUfgh/ckaRd8
67YBE1kLYRBGJQTgjFCINSZkzuAg6i07/pjI/PGUesfTk2+JNLVirdFnK7Gzqcpa
jWS6BPVnUF5zNZpLB4/1SoY2nuQdw+SHjABD08YN574HQM3ubrG7HcqTyFf0p9Vm
r6WLfLwoRLAb6Wvl+33uVL7Mk9/Oq19pws8Ev99ctOKzAYVb9qwRb1cArz61pNN6
CJZLQcxoCUyeN88L/FLLZNWWucIek/LaDHCpAgMBAAGjggEeMIIBGjAsBgNVHREE
JTAjggpsb2NhbGhvc3Qxggpsb2NhbGhvc3Qygglsb2NhbGhvc3QwCwYDVR0PBAQD
AgOoMBMGA1UdJQQMMAoGCCsGAQUFBwMBMB0GA1UdDgQWBBTWBGgSnFoncGvWiVXB
axF43XTYMjAfBgNVHSMEGDAWgBSdK86Vv9gikaLlrf55Dukj4U0oMjAJBgNVHRME
AjAAMEMGCCsGAQUFBwEBBDcwNTAzBggrBgEFBQcwAoYnaHR0cDovL3Rlc3QuY3Vy
bC5zZS9jYS9FZGVsQ3VybFJvb3QuY2VyMDgGA1UdHwQxMC8wLaAroCmGJ2h0dHA6
Ly90ZXN0LmN1cmwuc2UvY2EvRWRlbEN1cmxSb290LmNybDANBgkqhkiG9w0BAQsF
AAOCAQEAYHo1P6ebRBTPip04Rjx6k0MZne3zITJQevi05pDRXiZ1HP3tZLL+WpyW
9lst34Z9TIf6jx0TZ/L1kar5G8P3VNoXQ0kArZ5VU0PBME5rnvaZJrH6NYXV0XCI
MIeO05G5hfq44jEGnBfIKi+b5uhcx25XNvXHeKKbAe+N1TjsH/Duf9QLuIIdATpl
Rke6WJ/RTZUYF+QjSnZUxnBd/azygx3tZiuilyiq43+98gKLL0P+wXQ2j4dg3lEL
RArEmLZNlOXsznIlZmaOHIaqMFxXdYoo67NRk4RFavfOUqwbqA033+RgopYYzylm
qeIIUuYqOimLOiix303UDLab4kCyMw==
-----END CERTIFICATE-----
