extensions = x509v3

[ x509v3 ]
subjectAltName          = DNS:localhost
keyUsage                = keyEncipherment,digitalSignature,keyAgreement
extendedKeyUsage        = serverAuth
subjectKeyIdentifier    = hash
authorityKeyIdentifier  = keyid
basicConstraints        = CA:false
authorityInfoAccess     = @issuer_info
crlDistributionPoints   = @crl_info

[ crl_ext ]
authorityKeyIdentifier  = keyid:always
authorityInfoAccess     = @issuer_info

[ issuer_info ]
caIssuers;URI.0         = http://test.curl.se/ca/EdelCurlRoot.cer

[ crl_info ]
URI.0                   = http://test.curl.se/ca/EdelCurlRoot.crl

[ req ]
default_bits            = 2048
distinguished_name      = req_DN
default_md              = sha256
string_mask             = utf8only

[ req_DN ]
countryName             = "Country Name is Northern Nowhere"
countryName_value       = NN
organizationName        = "Organization Name"
organizationName_value  = Edel Curl Arctic Illudium Research Cloud
commonName              = "Common Name"
commonName_value        = localhost
-----BEGIN RSA PRIVATE KEY-----
MIIEpAIBAAKCAQEA5g2vWV5TVz9OweL4zzBl3WITMUYL0GCAUQ0JM43hsg8K8vwQ
C+E6aUPD6euLRYvVJg69yNSmDxsAjXQ2YDCg4CTH+twM44Nsi9H9Kqij0yH/xTxH
GgnhjDJ5dEnp8t/3Tay0B+yBQCdls5Rpds1XHyFg37R8CC8z/XbMI8jtHPu7inQu
/nwd0y8iLf8RfZJQzMAGrJWoswZCgwkcUoHRFCG/0bCZUHpqEAww1fDkGsddG+m+
vsVU6+RyBDXEFKG6IEUvYMjhod61ZfcqXQXRki0izhrKwjX9fPYCR4UijF1uTylr
OvmEc4lKZHufvf4KTaAIekF3o926ySBYoXy4sQIDAQABAoIBAQCorDH7sWgjmRwy
lirdJlwZlFYEE5qH3qlWQ9uSPB3VwqfBfkR5oVqFYZUcRoInrJ3MOJS30gorGx4t
mJ5hqmXZ0b36VSryCSMl5QHdLCZpoAz63PY4xjPj6gIY3DS2ybV18wFQqfweQISV
xWQKIgYVohB4FMm36nwRA/Aq8J/BVgC/SIGJnDW2EGId5op20BdH7APedquXqzzp
FwETV3hH7QDbdip+Td+5/Nnc9yLg4ecSvOLe5mLaGXgsxhNqAKnY5f3izMh+FTvx
jgR12x/urhu4mwpKie7Y/JO+FsNJYevHHKYX1wUhGO2Puco4bCUiAecmrO4lFOMX
auBjsCQtAoGBAPcnzQy8UIHBSxgUaQ2zEWtQNKg/lYy3BiM7rTq8HIAEggL5ylxv
bP17tIQQZAhayaeR1BKL7yP8d5UlZedI9gzMP23mNsrxpC2BsmcBEZZQFRRFhWsD
bnVWWQkx6KgVIDtZwQF1OhNUuZxUkTlXMSuSdNNVJADIHd8y7oxaGGvHAoGBAO5J
Nj3L7eh9Eoh4iEMbyOu1iymE+jdzuY80wVBacMinjpmGE6wlIf/bvwb2/xGMd+Ix
Sd60wCg/obN/62EAWaiJH88qrF5Uj+l2u1tmp3oRMOiBkXbLhEXzGP9Qcoa6s8gT
HjatboUgCUuSQrY4OUu+wmqwufBh7poSGFUs/YfHAoGBAL5svgG3/ddbVD5jS2Ww
uBUUoN2Yz+KxCVuQGTINyW+hCYK9bnq1pyXOcBDoiAof2QrwwpLfmgsB9CjHvbHr
dxf5Lk3AeCr47uPY79mI60ICxZruzZLb+/kP5F2/RGBsln7j8l7rMSm/t5qJVbL2
SP4nQzeoe6rWhJ15om4k5Hf1AoGAGpuGOQRKfoloxmBfJs81ckyFS4+TuRltAPat
F2Hh8iXzoGT+UVycHUvWWtq9xKHgyRsj2oBobJYeYkLIb75wRId7S9DCCo56u2EM
rroZvWGqCmxdZ9x12rG4etnqz+yNIqwv1X8sNiVLpGqilGJW04RrhSpSuOrWj9Gx
ceFiNgUCgYBAAubXkD1rcIs2X8Ds3ztwYPaGL8ZX4q8eWvncgjz3YmVve408XD0w
Sd44NWgjK2LXMv3ddXFdukoDmGm75KhDHWKO9vPBo0wpB5FXkMyHiDyM65X0MZC8
xzSd9dUcy7TBjMVV2ge81b6U8nCwrdrU2L/0dzigmKnrLrF8MRjFLA==
-----END RSA PRIVATE KEY-----
Certificate:
    Data:
        Version: 3 (0x2)
        Serial Number:
            81:34:c8:2d:81:f0:54:1f
    Signature Algorithm: sha256WithRSAEncryption
        Issuer:
            countryName               = NN
            organizationName          = Edel Curl Arctic Illudium Research Cloud
            commonName                = Northern Nowhere Trust Anchor
        Validity
            Not Before: Mar  6 11:51:47 2025 GMT
            Not After : Dec 31 11:51:47 2025 GMT
        Subject:
            countryName               = NN
            organizationName          = Edel Curl Arctic Illudium Research Cloud
            commonName                = localhost
        Subject Public Key Info:
            Public Key Algorithm: rsaEncryption
                RSA Public-Key: (2048 bit)
                Modulus:
                    00:e6:0d:af:59:5e:53:57:3f:4e:c1:e2:f8:cf:30:
                    65:dd:62:13:31:46:0b:d0:60:80:51:0d:09:33:8d:
                    e1:b2:0f:0a:f2:fc:10:0b:e1:3a:69:43:c3:e9:eb:
                    8b:45:8b:d5:26:0e:bd:c8:d4:a6:0f:1b:00:8d:74:
                    36:60:30:a0:e0:24:c7:fa:dc:0c:e3:83:6c:8b:d1:
                    fd:2a:a8:a3:d3:21:ff:c5:3c:47:1a:09:e1:8c:32:
                    79:74:49:e9:f2:df:f7:4d:ac:b4:07:ec:81:40:27:
                    65:b3:94:69:76:cd:57:1f:21:60:df:b4:7c:08:2f:
                    33:fd:76:cc:23:c8:ed:1c:fb:bb:8a:74:2e:fe:7c:
                    1d:d3:2f:22:2d:ff:11:7d:92:50:cc:c0:06:ac:95:
                    a8:b3:06:42:83:09:1c:52:81:d1:14:21:bf:d1:b0:
                    99:50:7a:6a:10:0c:30:d5:f0:e4:1a:c7:5d:1b:e9:
                    be:be:c5:54:eb:e4:72:04:35:c4:14:a1:ba:20:45:
                    2f:60:c8:e1:a1:de:b5:65:f7:2a:5d:05:d1:92:2d:
                    22:ce:1a:ca:c2:35:fd:7c:f6:02:47:85:22:8c:5d:
                    6e:4f:29:6b:3a:f9:84:73:89:4a:64:7b:9f:bd:fe:
                    0a:4d:a0:08:7a:41:77:a3:dd:ba:c9:20:58:a1:7c:
                    b8:b1
                Exponent: 65537 (0x10001)
        X509v3 extensions:
            X509v3 Subject Alternative Name: 
                DNS:localhost
            X509v3 Key Usage: 
                Digital Signature, Key Encipherment, Key Agreement
            X509v3 Extended Key Usage: 
                TLS Web Server Authentication
            X509v3 Subject Key Identifier: 
                B4:23:96:D3:28:32:87:90:18:46:E5:2D:CD:D3:DB:4F:9B:92:76:79
            X509v3 Authority Key Identifier: 
                keyid:9D:2B:CE:95:BF:D8:22:91:A2:E5:AD:FE:79:0E:E9:23:E1:4D:28:32

            X509v3 Basic Constraints: 
                CA:FALSE
            Authority Information Access: 
                CA Issuers - URI:http://test.curl.se/ca/EdelCurlRoot.cer

            X509v3 CRL Distribution Points: 

                Full Name:
                  URI:http://test.curl.se/ca/EdelCurlRoot.crl

    Signature Algorithm: sha256WithRSAEncryption
         43:b8:3e:47:2e:1c:8e:76:16:4d:c5:04:89:c9:d3:42:5c:af:
         97:27:da:6a:7f:bb:6d:49:51:0c:60:c7:0b:ce:8f:a3:33:26:
         ae:f8:75:fa:c8:43:65:b7:c1:a4:eb:bb:9b:50:e4:97:8f:78:
         b0:a7:00:95:5e:ac:3d:39:96:a6:39:a6:96:ad:5c:1b:e0:d3:
         81:91:25:f1:1c:bd:dd:70:d5:8d:44:03:6e:8c:93:66:98:fd:
         1d:66:b8:58:6a:90:11:26:44:3b:4e:8a:c4:ef:f7:4c:f4:57:
         ba:75:f5:dd:24:43:82:29:12:e8:4e:fc:9e:6f:a8:8e:e7:01:
         ff:56:e4:2d:62:02:99:a1:a9:fa:45:46:48:58:17:e8:ee:37:
         31:39:08:b6:a3:55:7e:6a:c5:3e:c0:1c:03:39:bc:64:d8:8d:
         7e:57:35:71:14:38:77:64:3a:3f:b4:4b:e8:10:31:a1:08:8c:
         2f:e8:de:d4:f8:a0:e6:07:3b:12:8e:12:83:eb:e3:ba:7c:91:
         b3:50:5e:f3:df:6d:3f:c1:70:f3:5c:e5:0c:84:1a:9d:5a:ae:
         bc:ac:53:f2:b6:e5:66:f8:00:c0:74:af:ed:e2:89:36:a6:c2:
         8b:90:8d:6c:23:a3:60:2e:49:1d:dd:d2:19:45:cb:cf:a4:c3:
         87:9c:fb:8f
-----BEGIN CERTIFICATE-----
MIIERzCCAy+gAwIBAgIJAIE0yC2B8FQfMA0GCSqGSIb3DQEBCwUAMGgxCzAJBgNV
BAYTAk5OMTEwLwYDVQQKDChFZGVsIEN1cmwgQXJjdGljIElsbHVkaXVtIFJlc2Vh
cmNoIENsb3VkMSYwJAYDVQQDDB1Ob3J0aGVybiBOb3doZXJlIFRydXN0IEFuY2hv
cjAeFw0yNTAzMDYxMTUxNDdaFw0yNTEyMzExMTUxNDdaMFQxCzAJBgNVBAYTAk5O
MTEwLwYDVQQKDChFZGVsIEN1cmwgQXJjdGljIElsbHVkaXVtIFJlc2VhcmNoIENs
b3VkMRIwEAYDVQQDDAlsb2NhbGhvc3QwggEiMA0GCSqGSIb3DQEBAQUAA4IBDwAw
ggEKAoIBAQDmDa9ZXlNXP07B4vjPMGXdYhMxRgvQYIBRDQkzjeGyDwry/BAL4Tpp
Q8Pp64tFi9UmDr3I1KYPGwCNdDZgMKDgJMf63Azjg2yL0f0qqKPTIf/FPEcaCeGM
Mnl0Seny3/dNrLQH7IFAJ2WzlGl2zVcfIWDftHwILzP9dswjyO0c+7uKdC7+fB3T
LyIt/xF9klDMwAaslaizBkKDCRxSgdEUIb/RsJlQemoQDDDV8OQax10b6b6+xVTr
5HIENcQUobogRS9gyOGh3rVl9ypdBdGSLSLOGsrCNf189gJHhSKMXW5PKWs6+YRz
iUpke5+9/gpNoAh6QXej3brJIFihfLixAgMBAAGjggEGMIIBAjAUBgNVHREEDTAL
gglsb2NhbGhvc3QwCwYDVR0PBAQDAgOoMBMGA1UdJQQMMAoGCCsGAQUFBwMBMB0G
A1UdDgQWBBS0I5bTKDKHkBhG5S3N09tPm5J2eTAfBgNVHSMEGDAWgBSdK86Vv9gi
kaLlrf55Dukj4U0oMjAJBgNVHRMEAjAAMEMGCCsGAQUFBwEBBDcwNTAzBggrBgEF
BQcwAoYnaHR0cDovL3Rlc3QuY3VybC5zZS9jYS9FZGVsQ3VybFJvb3QuY2VyMDgG
A1UdHwQxMC8wLaAroCmGJ2h0dHA6Ly90ZXN0LmN1cmwuc2UvY2EvRWRlbEN1cmxS
b290LmNybDANBgkqhkiG9w0BAQsFAAOCAQEAQ7g+Ry4cjnYWTcUEicnTQlyvlyfa
an+7bUlRDGDHC86PozMmrvh1+shDZbfBpOu7m1Dkl494sKcAlV6sPTmWpjmmlq1c
G+DTgZEl8Ry93XDVjUQDboyTZpj9HWa4WGqQESZEO06KxO/3TPRXunX13SRDgikS
6E78nm+ojucB/1bkLWICmaGp+kVGSFgX6O43MTkItqNVfmrFPsAcAzm8ZNiNflc1
cRQ4d2Q6P7RL6BAxoQiML+je1Pig5gc7Eo4Sg+vjunyRs1Be899tP8Fw81zlDIQa
nVquvKxT8rblZvgAwHSv7eKJNqbCi5CNbCOjYC5JHd3SGUXLz6TDh5z7jw==
-----END CERTIFICATE-----
