Certificate:
    Data:
        Version: 3 (0x2)
        Serial Number:
            81:34:c8:2d:81:f0:54:20
    Signature Algorithm: sha256WithRSAEncryption
        Issuer:
            countryName               = NN
            organizationName          = Edel Curl Arctic Illudium Research Cloud
            commonName                = Northern Nowhere Trust Anchor
        Validity
            Not Before: Mar  6 11:51:47 2025 GMT
            Not After : Dec 31 11:51:47 2025 GMT
        Subject:
            countryName               = NN
            organizationName          = Edel Curl Arctic Illudium Research Cloud
            commonName                = localhost.nn
        Subject Public Key Info:
            Public Key Algorithm: rsaEncryption
                RSA Public-Key: (2048 bit)
                Modulus:
                    00:c8:04:06:3e:c7:71:90:6b:e3:ce:39:04:3d:70:
                    5b:a2:50:fb:9e:9f:68:d9:36:f0:87:b9:82:65:3a:
                    9a:2a:fe:37:e0:e0:96:f0:27:4b:c0:f2:01:33:11:
                    ba:ba:06:3d:73:77:34:9f:0d:fd:d8:da:1e:bf:4d:
                    64:d3:80:d0:65:e8:b5:25:cb:e9:d5:6e:2e:46:9c:
                    2a:18:07:36:46:17:a2:db:89:08:13:f6:44:01:82:
                    8f:45:8b:b4:a1:7b:8b:87:36:66:e0:3e:01:ad:0c:
                    29:07:02:3d:5b:67:ec:0b:2e:c3:3b:c6:da:20:99:
                    5f:cf:6d:f4:77:12:7b:be:1f:c3:b4:26:5c:f8:7e:
                    86:39:7f:07:f8:12:15:36:47:0b:1b:f0:02:d6:65:
                    5c:ba:19:ad:9f:b0:43:9f:54:49:4f:c8:0c:89:07:
                    c4:78:91:c0:3d:64:87:ba:a3:30:a0:c7:15:2c:d1:
                    a9:7c:cb:14:9e:8c:55:50:92:cc:ae:64:27:df:eb:
                    54:86:a1:11:55:74:60:53:5b:cc:dc:9e:7a:85:9b:
                    e5:e5:2e:03:a2:23:19:23:98:76:87:b1:4b:63:13:
                    60:8e:ba:c5:c6:ed:d8:d2:fd:ad:a1:dd:15:37:a6:
                    91:f2:c8:eb:f7:68:ee:ff:f3:d5:c7:81:a3:12:3a:
                    79:2d
                Exponent: 65537 (0x10001)
        X509v3 extensions:
            X509v3 Subject Alternative Name: 
                DNS:localhost.nn
            X509v3 Key Usage: 
                Digital Signature, Key Encipherment, Key Agreement
            X509v3 Extended Key Usage: 
                TLS Web Server Authentication
            X509v3 Subject Key Identifier: 
                F7:82:F9:EF:7C:0E:14:42:64:61:2C:F0:9C:36:F2:C0:B5:76:C8:1A
            X509v3 Authority Key Identifier: 
                keyid:9D:2B:CE:95:BF:D8:22:91:A2:E5:AD:FE:79:0E:E9:23:E1:4D:28:32

            X509v3 Basic Constraints: 
                CA:FALSE
            Authority Information Access: 
                CA Issuers - URI:http://test.curl.se/ca/EdelCurlRoot.cer

            X509v3 CRL Distribution Points: 

                Full Name:
                  URI:http://test.curl.se/ca/EdelCurlRoot.crl

    Signature Algorithm: sha256WithRSAEncryption
         8a:4a:da:16:6e:86:84:f9:3d:8e:76:cf:e5:32:b3:aa:c1:23:
         87:e6:f7:2e:e9:f0:9f:5d:a0:88:e8:68:71:6d:52:12:53:db:
         dc:9e:8f:ac:de:95:a2:a7:d6:9e:82:ff:ef:80:49:74:4c:fa:
         3a:95:73:1d:a5:b2:93:24:3e:79:c7:47:29:04:9c:6d:e2:fa:
         98:a2:ef:10:f6:f8:00:ea:09:3b:c4:90:7f:f3:43:df:dc:6a:
         01:dd:c6:32:ae:38:bd:d1:36:c3:e6:05:c1:60:3e:7f:d9:8f:
         42:7a:f1:66:54:f8:2f:f0:a8:31:84:73:f9:26:2b:71:02:4e:
         6a:53:d6:c8:b7:5e:b0:27:40:b3:24:ee:93:76:f3:17:5d:94:
         f6:d9:3a:b7:57:ff:fa:7a:09:13:b8:7f:f4:62:e8:06:0c:1d:
         94:f0:7a:2a:af:9d:82:da:de:42:26:a2:42:cd:a0:ab:5e:ad:
         94:97:e2:7c:f5:91:f9:39:d2:3b:26:95:a3:43:b4:8c:20:ca:
         5e:7c:af:07:48:24:1f:bf:32:8e:f0:a2:85:ff:74:f1:bd:7c:
         44:63:9f:cf:91:74:b8:a8:0a:59:70:57:12:92:d7:c9:b7:ea:
         61:a3:e7:6a:5f:4c:36:3c:b8:90:c6:3a:4b:44:42:d0:82:bb:
         84:64:4a:03
-----BEGIN CERTIFICATE-----
MIIETTCCAzWgAwIBAgIJAIE0yC2B8FQgMA0GCSqGSIb3DQEBCwUAMGgxCzAJBgNV
BAYTAk5OMTEwLwYDVQQKDChFZGVsIEN1cmwgQXJjdGljIElsbHVkaXVtIFJlc2Vh
cmNoIENsb3VkMSYwJAYDVQQDDB1Ob3J0aGVybiBOb3doZXJlIFRydXN0IEFuY2hv
cjAeFw0yNTAzMDYxMTUxNDdaFw0yNTEyMzExMTUxNDdaMFcxCzAJBgNVBAYTAk5O
MTEwLwYDVQQKDChFZGVsIEN1cmwgQXJjdGljIElsbHVkaXVtIFJlc2VhcmNoIENs
b3VkMRUwEwYDVQQDDAxsb2NhbGhvc3Qubm4wggEiMA0GCSqGSIb3DQEBAQUAA4IB
DwAwggEKAoIBAQDIBAY+x3GQa+POOQQ9cFuiUPuen2jZNvCHuYJlOpoq/jfg4Jbw
J0vA8gEzEbq6Bj1zdzSfDf3Y2h6/TWTTgNBl6LUly+nVbi5GnCoYBzZGF6LbiQgT
9kQBgo9Fi7She4uHNmbgPgGtDCkHAj1bZ+wLLsM7xtogmV/PbfR3Enu+H8O0Jlz4
foY5fwf4EhU2Rwsb8ALWZVy6Ga2fsEOfVElPyAyJB8R4kcA9ZIe6ozCgxxUs0al8
yxSejFVQksyuZCff61SGoRFVdGBTW8zcnnqFm+XlLgOiIxkjmHaHsUtjE2COusXG
7djS/a2h3RU3ppHyyOv3aO7/89XHgaMSOnktAgMBAAGjggEJMIIBBTAXBgNVHREE
EDAOggxsb2NhbGhvc3Qubm4wCwYDVR0PBAQDAgOoMBMGA1UdJQQMMAoGCCsGAQUF
BwMBMB0GA1UdDgQWBBT3gvnvfA4UQmRhLPCcNvLAtXbIGjAfBgNVHSMEGDAWgBSd
K86Vv9gikaLlrf55Dukj4U0oMjAJBgNVHRMEAjAAMEMGCCsGAQUFBwEBBDcwNTAz
BggrBgEFBQcwAoYnaHR0cDovL3Rlc3QuY3VybC5zZS9jYS9FZGVsQ3VybFJvb3Qu
Y2VyMDgGA1UdHwQxMC8wLaAroCmGJ2h0dHA6Ly90ZXN0LmN1cmwuc2UvY2EvRWRl
bEN1cmxSb290LmNybDANBgkqhkiG9w0BAQsFAAOCAQEAikraFm6GhPk9jnbP5TKz
qsEjh+b3Lunwn12giOhocW1SElPb3J6PrN6VoqfWnoL/74BJdEz6OpVzHaWykyQ+
ecdHKQScbeL6mKLvEPb4AOoJO8SQf/ND39xqAd3GMq44vdE2w+YFwWA+f9mPQnrx
ZlT4L/CoMYRz+SYrcQJOalPWyLdesCdAsyTuk3bzF12U9tk6t1f/+noJE7h/9GLo
BgwdlPB6Kq+dgtreQiaiQs2gq16tlJfifPWR+TnSOyaVo0O0jCDKXnyvB0gkH78y
jvCihf908b18RGOfz5F0uKgKWXBXEpLXybfqYaPnal9MNjy4kMY6S0RC0IK7hGRK
Aw==
-----END CERTIFICATE-----
