Certificate:
    Data:
        Version: 3 (0x2)
        Serial Number:
            ed:c7:ef:5d:c1:2b:f1:2f
    Signature Algorithm: sha256WithRSAEncryption
        Issuer:
            countryName               = NN
            organizationName          = Edel Curl Arctic Illudium Research Cloud
            commonName                = Northern Nowhere Trust Anchor
        Validity
            Not Before: Mar  6 11:51:47 2025 GMT
            Not After : Aug  9 11:51:47 2041 GMT
        Subject:
            countryName               = NN
            organizationName          = Edel Curl Arctic Illudium Research Cloud
            commonName                = Northern Nowhere Trust Anchor
        Subject Public Key Info:
            Public Key Algorithm: rsaEncryption
                RSA Public-Key: (2048 bit)
                Modulus:
                    00:cb:e8:c2:61:24:08:95:87:5d:dd:80:67:29:9a:
                    0a:b0:55:28:1c:86:75:22:ec:8a:a3:ad:e8:3c:88:
                    2c:bb:a2:5c:48:0a:9b:36:c3:b3:6b:1d:ef:1c:79:
                    80:05:cb:81:45:93:4d:96:f8:a7:0c:93:84:71:1e:
                    5a:27:83:16:84:be:0a:fc:08:eb:f6:60:7f:3e:8e:
                    6d:39:8b:55:7a:c0:a2:7b:8c:a6:45:27:9e:6e:37:
                    ad:b5:40:8a:83:7c:d2:0d:b0:e2:3d:ed:f5:3d:26:
                    de:b7:7c:99:3c:56:98:bc:9d:49:bf:c8:ce:12:b5:
                    40:1e:f7:4e:91:78:80:52:7a:83:84:9e:ec:0d:0e:
                    18:40:cb:ec:95:76:85:ff:88:9a:8f:12:a4:ef:7e:
                    7f:30:66:3a:cb:0e:b4:6a:d7:5c:8c:b3:e1:4c:57:
                    47:45:ec:59:27:80:5b:11:37:1a:cd:41:d0:30:06:
                    b7:fa:45:0f:37:8b:39:24:c3:3d:55:ba:a9:ef:68:
                    88:3e:c4:4c:a7:43:44:13:27:06:95:ba:89:74:59:
                    f8:a6:d0:8f:39:a2:d7:74:dd:9b:95:95:4b:8f:d7:
                    70:dc:7b:68:cf:ee:9b:89:72:41:1b:2a:d2:b1:a3:
                    a4:eb:6a:94:c2:e4:d0:ab:93:83:37:d1:12:28:b3:
                    19:6b
                Exponent: 65537 (0x10001)
        X509v3 extensions:
            X509v3 Basic Constraints: critical
                CA:TRUE
            X509v3 Key Usage: critical
                Certificate Sign, CRL Sign
            X509v3 Subject Key Identifier: 
                9D:2B:CE:95:BF:D8:22:91:A2:E5:AD:FE:79:0E:E9:23:E1:4D:28:32
            X509v3 Authority Key Identifier: 
                keyid:9D:2B:CE:95:BF:D8:22:91:A2:E5:AD:FE:79:0E:E9:23:E1:4D:28:32

            Authority Information Access: 
                CA Issuers - URI:http://test.curl.se/ca/EdelCurlRoot.cer

            X509v3 CRL Distribution Points: 

                Full Name:
                  URI:http://test.curl.se/ca/EdelCurlRoot.crl

    Signature Algorithm: sha256WithRSAEncryption
         12:fd:0c:0f:2b:d8:e0:45:e3:b3:f4:43:de:e9:bc:5c:ce:6d:
         56:db:2a:30:cd:d3:46:5d:c1:6b:00:fb:fc:9c:d8:0b:7d:18:
         f8:ef:9a:84:3e:44:94:0e:ae:f8:5f:69:ed:1a:ac:0b:c1:af:
         7e:63:83:2c:cb:73:81:ce:f3:88:1c:8b:59:38:42:15:ba:64:
         08:ff:55:a9:d9:59:1b:3a:c5:90:b2:fe:19:a6:22:73:f5:a8:
         c2:58:45:5a:c8:13:2f:cd:39:7f:67:86:17:26:9e:56:19:e6:
         b9:72:39:a4:21:a9:99:9c:8d:71:15:33:c7:25:90:b5:df:65:
         9d:35:22:13:a4:b2:e1:56:00:fd:5b:ca:65:58:0d:46:13:fe:
         d7:ba:c4:3a:56:24:79:cf:e8:fa:26:25:b9:f7:48:31:e8:c3:
         fd:30:d7:a9:d3:a3:cf:6c:ca:03:d5:b4:54:cd:05:a6:67:a4:
         ca:fb:25:29:0e:00:e8:cc:37:86:91:4b:e4:8a:f4:eb:15:4c:
         d6:d6:f5:87:61:00:eb:dd:a9:d8:09:56:ca:e4:1c:1c:79:04:
         6e:fd:9d:00:54:6a:e1:78:14:c0:a2:ca:c1:07:39:82:57:9e:
         63:d9:b8:d4:20:96:25:da:59:fe:da:3a:d4:fe:e4:74:f1:19:
         56:63:01:46
-----BEGIN CERTIFICATE-----
MIIENzCCAx+gAwIBAgIJAO3H713BK/EvMA0GCSqGSIb3DQEBCwUAMGgxCzAJBgNV
BAYTAk5OMTEwLwYDVQQKDChFZGVsIEN1cmwgQXJjdGljIElsbHVkaXVtIFJlc2Vh
cmNoIENsb3VkMSYwJAYDVQQDDB1Ob3J0aGVybiBOb3doZXJlIFRydXN0IEFuY2hv
cjAeFw0yNTAzMDYxMTUxNDdaFw00MTA4MDkxMTUxNDdaMGgxCzAJBgNVBAYTAk5O
MTEwLwYDVQQKDChFZGVsIEN1cmwgQXJjdGljIElsbHVkaXVtIFJlc2VhcmNoIENs
b3VkMSYwJAYDVQQDDB1Ob3J0aGVybiBOb3doZXJlIFRydXN0IEFuY2hvcjCCASIw
DQYJKoZIhvcNAQEBBQADggEPADCCAQoCggEBAMvowmEkCJWHXd2AZymaCrBVKByG
dSLsiqOt6DyILLuiXEgKmzbDs2sd7xx5gAXLgUWTTZb4pwyThHEeWieDFoS+CvwI
6/Zgfz6ObTmLVXrAonuMpkUnnm43rbVAioN80g2w4j3t9T0m3rd8mTxWmLydSb/I
zhK1QB73TpF4gFJ6g4Se7A0OGEDL7JV2hf+Imo8SpO9+fzBmOssOtGrXXIyz4UxX
R0XsWSeAWxE3Gs1B0DAGt/pFDzeLOSTDPVW6qe9oiD7ETKdDRBMnBpW6iXRZ+KbQ
jzmi13Tdm5WVS4/XcNx7aM/um4lyQRsq0rGjpOtqlMLk0KuTgzfREiizGWsCAwEA
AaOB4zCB4DAPBgNVHRMBAf8EBTADAQH/MA4GA1UdDwEB/wQEAwIBBjAdBgNVHQ4E
FgQUnSvOlb/YIpGi5a3+eQ7pI+FNKDIwHwYDVR0jBBgwFoAUnSvOlb/YIpGi5a3+
eQ7pI+FNKDIwQwYIKwYBBQUHAQEENzA1MDMGCCsGAQUFBzAChidodHRwOi8vdGVz
dC5jdXJsLnNlL2NhL0VkZWxDdXJsUm9vdC5jZXIwOAYDVR0fBDEwLzAtoCugKYYn
aHR0cDovL3Rlc3QuY3VybC5zZS9jYS9FZGVsQ3VybFJvb3QuY3JsMA0GCSqGSIb3
DQEBCwUAA4IBAQAS/QwPK9jgReOz9EPe6bxczm1W2yowzdNGXcFrAPv8nNgLfRj4
75qEPkSUDq74X2ntGqwLwa9+Y4Msy3OBzvOIHItZOEIVumQI/1Wp2VkbOsWQsv4Z
piJz9ajCWEVayBMvzTl/Z4YXJp5WGea5cjmkIamZnI1xFTPHJZC132WdNSITpLLh
VgD9W8plWA1GE/7XusQ6ViR5z+j6JiW590gx6MP9MNep06PPbMoD1bRUzQWmZ6TK
+yUpDgDozDeGkUvkivTrFUzW1vWHYQDr3anYCVbK5BwceQRu/Z0AVGrheBTAosrB
BzmCV55j2bjUIJYl2ln+2jrU/uR08RlWYwFG
-----END CERTIFICATE-----
